	.intel_syntax noprefix
	.file	"prj"
	.text
	.p2align	4
	.type	serializer.CommandSerializer.serializeArgument__anon_4626,@function
serializer.CommandSerializer.serializeArgument__anon_4626:
	.cfi_startproc
	push	rbp
	.cfi_def_cfa_offset 16
	.cfi_offset rbp, -16
	mov	rbp, rsp
	.cfi_def_cfa_register rbp
	push	r15
	push	r14
	push	r13
	push	r12
	push	rbx
	sub	rsp, 120
	.cfi_offset rbx, -56
	.cfi_offset r12, -48
	.cfi_offset r13, -40
	.cfi_offset r14, -32
	.cfi_offset r15, -24
	mov	rbx, rdi
	movzx	eax, byte ptr [rsi + 4]
	mov	byte ptr [rbp - 60], al
	mov	eax, dword ptr [rsi]
	mov	dword ptr [rbp - 64], eax
	lea	r12, [rip + __anon_7133]
	lea	r14, [rbp - 148]
	lea	r15, [rbp - 56]
.LBB0_1:
	mov	rax, qword ptr [rbx + 24]
	cmp	rax, qword ptr [rbx + 16]
	jb	.LBB0_2
	mov	rax, qword ptr [rbx]
	mov	rax, qword ptr [rax]
	mov	qword ptr [rbp - 56], r12
	mov	qword ptr [rbp - 48], 1
	mov	ecx, 1
	mov	r8d, 1
	mov	rdi, r14
	mov	rsi, rbx
	mov	rdx, r15
	call	rax
	movzx	eax, word ptr [rbp - 140]
	test	ax, ax
	jne	.LBB0_29
	cmp	qword ptr [rbp - 148], 0
	je	.LBB0_1
	jmp	.LBB0_5
.LBB0_2:
	mov	rcx, qword ptr [rbx + 8]
	mov	byte ptr [rcx + rax], 36
	inc	qword ptr [rbx + 24]
.LBB0_5:
	lea	r12, [rbp - 84]
	mov	byte ptr [rbp - 84], 52
	lea	r14, [rbp - 56]
	lea	r15, [rbp - 80]
.LBB0_6:
	mov	rax, qword ptr [rbx + 24]
	cmp	rax, qword ptr [rbx + 16]
	jb	.LBB0_7
	mov	rax, qword ptr [rbx]
	mov	rax, qword ptr [rax]
	mov	qword ptr [rbp - 80], r12
	mov	qword ptr [rbp - 72], 1
	mov	ecx, 1
	mov	r8d, 1
	mov	rdi, r14
	mov	rsi, rbx
	mov	rdx, r15
	call	rax
	movzx	eax, word ptr [rbp - 48]
	test	ax, ax
	jne	.LBB0_29
	cmp	qword ptr [rbp - 56], 0
	je	.LBB0_6
	jmp	.LBB0_10
.LBB0_7:
	mov	rcx, qword ptr [rbx + 8]
	movzx	edx, byte ptr [rbp - 84]
	mov	byte ptr [rcx + rax], dl
	inc	qword ptr [rbx + 24]
.LBB0_10:
	xor	r14d, r14d
	lea	r13, [rip + __anon_7106]
	lea	r15, [rbp - 56]
	.p2align	4
.LBB0_11:
	lea	rsi, [r14 + r13]
	mov	r12d, 2
	sub	r12, r14
	mov	rdi, qword ptr [rbx + 24]
	lea	rax, [rdi + r12]
	cmp	rax, qword ptr [rbx + 16]
	ja	.LBB0_13
	add	rdi, qword ptr [rbx + 8]
	mov	rdx, r12
	call	memcpy@PLT
	add	qword ptr [rbx + 24], r12
	add	r14, r12
	cmp	r14, 2
	jb	.LBB0_11
	jmp	.LBB0_16
.LBB0_13:
	mov	rax, qword ptr [rbx]
	mov	rax, qword ptr [rax]
	mov	qword ptr [rbp - 56], rsi
	mov	qword ptr [rbp - 48], r12
	mov	ecx, 1
	mov	r8d, 1
	lea	rdi, [rbp - 148]
	mov	rsi, rbx
	mov	rdx, r15
	call	rax
	movzx	eax, word ptr [rbp - 140]
	test	ax, ax
	jne	.LBB0_29
	mov	r12, qword ptr [rbp - 148]
	add	r14, r12
	cmp	r14, 2
	jb	.LBB0_11
.LBB0_16:
	movzx	eax, byte ptr [rbp - 60]
	mov	byte ptr [rbp - 144], al
	mov	eax, dword ptr [rbp - 64]
	mov	dword ptr [rbp - 148], eax
	xor	r14d, r14d
	lea	r15, [rbp - 80]
	.p2align	4
.LBB0_17:
	lea	rsi, [r14 + rbp]
	add	rsi, -148
	mov	r12d, 4
	sub	r12, r14
	mov	rdi, qword ptr [rbx + 24]
	lea	rax, [rdi + r12]
	cmp	rax, qword ptr [rbx + 16]
	ja	.LBB0_19
	add	rdi, qword ptr [rbx + 8]
	mov	rdx, r12
	call	memcpy@PLT
	add	qword ptr [rbx + 24], r12
	add	r14, r12
	cmp	r14, 4
	jb	.LBB0_17
	jmp	.LBB0_22
.LBB0_19:
	mov	rax, qword ptr [rbx]
	mov	rax, qword ptr [rax]
	mov	qword ptr [rbp - 80], rsi
	mov	qword ptr [rbp - 72], r12
	mov	ecx, 1
	mov	r8d, 1
	lea	rdi, [rbp - 56]
	mov	rsi, rbx
	mov	rdx, r15
	call	rax
	movzx	eax, word ptr [rbp - 48]
	test	ax, ax
	jne	.LBB0_29
	mov	r12, qword ptr [rbp - 56]
	add	r14, r12
	cmp	r14, 4
	jb	.LBB0_17
.LBB0_22:
	xor	r14d, r14d
	lea	r15, [rbp - 56]
	.p2align	4
.LBB0_23:
	lea	rsi, [r14 + r13]
	mov	r12d, 2
	sub	r12, r14
	mov	rdi, qword ptr [rbx + 24]
	lea	rax, [rdi + r12]
	cmp	rax, qword ptr [rbx + 16]
	ja	.LBB0_25
	add	rdi, qword ptr [rbx + 8]
	mov	rdx, r12
	call	memcpy@PLT
	add	qword ptr [rbx + 24], r12
	add	r14, r12
	cmp	r14, 2
	jb	.LBB0_23
	jmp	.LBB0_28
.LBB0_25:
	mov	rax, qword ptr [rbx]
	mov	rax, qword ptr [rax]
	mov	qword ptr [rbp - 56], rsi
	mov	qword ptr [rbp - 48], r12
	mov	ecx, 1
	mov	r8d, 1
	lea	rdi, [rbp - 148]
	mov	rsi, rbx
	mov	rdx, r15
	call	rax
	movzx	eax, word ptr [rbp - 140]
	test	ax, ax
	jne	.LBB0_29
	mov	r12, qword ptr [rbp - 148]
	add	r14, r12
	cmp	r14, 2
	jb	.LBB0_23
.LBB0_28:
	xor	eax, eax
.LBB0_29:
	add	rsp, 120
	pop	rbx
	pop	r12
	pop	r13
	pop	r14
	pop	r15
	pop	rbp
	.cfi_def_cfa rsp, 8
	ret
.Lfunc_end0:
	.size	serializer.CommandSerializer.serializeArgument__anon_4626, .Lfunc_end0-serializer.CommandSerializer.serializeArgument__anon_4626
	.cfi_endproc

	.p2align	4
	.type	serializer.CommandSerializer.serializeArgument__anon_4640,@function
serializer.CommandSerializer.serializeArgument__anon_4640:
	.cfi_startproc
	push	rbp
	.cfi_def_cfa_offset 16
	.cfi_offset rbp, -16
	mov	rbp, rsp
	.cfi_def_cfa_register rbp
	push	r15
	push	r14
	push	r13
	push	r12
	push	rbx
	sub	rsp, 120
	.cfi_offset rbx, -56
	.cfi_offset r12, -48
	.cfi_offset r13, -40
	.cfi_offset r14, -32
	.cfi_offset r15, -24
	mov	qword ptr [rbp - 64], rdx
	mov	qword ptr [rbp - 72], rsi
	mov	rbx, rdi
	lea	r15, [rip + __anon_7133]
	lea	r12, [rbp - 144]
	lea	r14, [rbp - 56]
.LBB1_1:
	mov	rax, qword ptr [rbx + 24]
	cmp	rax, qword ptr [rbx + 16]
	jb	.LBB1_2
	mov	rax, qword ptr [rbx]
	mov	rax, qword ptr [rax]
	mov	qword ptr [rbp - 56], r15
	mov	qword ptr [rbp - 48], 1
	mov	ecx, 1
	mov	r8d, 1
	mov	rdi, r12
	mov	rsi, rbx
	mov	rdx, r14
	call	rax
	movzx	eax, word ptr [rbp - 136]
	test	ax, ax
	jne	.LBB1_38
	cmp	qword ptr [rbp - 144], 0
	je	.LBB1_1
	jmp	.LBB1_5
.LBB1_2:
	mov	rcx, qword ptr [rbx + 8]
	mov	byte ptr [rcx + rax], 36
	inc	qword ptr [rbx + 24]
.LBB1_5:
	mov	eax, 65
	mov	r9, qword ptr [rbp - 64]
	mov	rcx, r9
	cmp	r9, 100
	jb	.LBB1_8
	mov	r8d, 65
	lea	rsi, [rip + __anon_14355]
	movabs	rdi, 2951479051793528259
	.p2align	4
.LBB1_7:
	lea	rax, [r8 - 2]
	mov	rdx, r9
	shr	rdx, 2
	mulx	rcx, rcx, rdi
	shr	rcx, 2
	imul	rdx, rcx, 100
	mov	r10, r9
	sub	r10, rdx
	movzx	edx, word ptr [rsi + 2*r10]
	mov	word ptr [rbp + r8 - 146], dx
	mov	r8, rax
	cmp	r9, 9999
	mov	r9, rcx
	ja	.LBB1_7
.LBB1_8:
	cmp	rcx, 9
	ja	.LBB1_10
	or	cl, 48
	mov	byte ptr [rbp + rax - 145], cl
	dec	rax
	mov	r15, rax
	sub	r15, 65
	je	.LBB1_18
	jmp	.LBB1_12
.LBB1_10:
	lea	rdx, [rip + __anon_14355]
	movzx	ecx, word ptr [rdx + 2*rcx]
	mov	word ptr [rbp + rax - 146], cx
	add	rax, -2
	mov	r15, rax
	sub	r15, 65
	jne	.LBB1_12
.LBB1_18:
	xor	r14d, r14d
	lea	r15, [rip + __anon_7106]
	lea	r13, [rbp - 56]
	.p2align	4
.LBB1_19:
	lea	rsi, [r15 + r14]
	mov	r12d, 2
	sub	r12, r14
	mov	rdi, qword ptr [rbx + 24]
	lea	rax, [rdi + r12]
	cmp	rax, qword ptr [rbx + 16]
	ja	.LBB1_21
	add	rdi, qword ptr [rbx + 8]
	mov	rdx, r12
	call	memcpy@PLT
	add	qword ptr [rbx + 24], r12
	add	r14, r12
	cmp	r14, 2
	jb	.LBB1_19
	jmp	.LBB1_24
.LBB1_21:
	mov	rax, qword ptr [rbx]
	mov	rax, qword ptr [rax]
	mov	qword ptr [rbp - 56], rsi
	mov	qword ptr [rbp - 48], r12
	mov	ecx, 1
	mov	r8d, 1
	lea	rdi, [rbp - 144]
	mov	rsi, rbx
	mov	rdx, r13
	call	rax
	movzx	eax, word ptr [rbp - 136]
	test	ax, ax
	jne	.LBB1_38
	mov	r12, qword ptr [rbp - 144]
	add	r14, r12
	cmp	r14, 2
	jb	.LBB1_19
.LBB1_24:
	mov	r14, qword ptr [rbp - 64]
	test	r14, r14
	je	.LBB1_31
	xor	r13d, r13d
	lea	r12, [rbp - 56]
	.p2align	4
.LBB1_26:
	mov	rax, qword ptr [rbp - 72]
	lea	rsi, [rax + r13]
	sub	r14, r13
	mov	rdi, qword ptr [rbx + 24]
	lea	rax, [rdi + r14]
	cmp	rax, qword ptr [rbx + 16]
	ja	.LBB1_28
	add	rdi, qword ptr [rbx + 8]
	mov	rdx, r14
	call	memcpy@PLT
	add	qword ptr [rbx + 24], r14
	add	r13, r14
	mov	r14, qword ptr [rbp - 64]
	cmp	r13, r14
	jb	.LBB1_26
	jmp	.LBB1_31
.LBB1_28:
	mov	rax, qword ptr [rbx]
	mov	rax, qword ptr [rax]
	mov	qword ptr [rbp - 56], rsi
	mov	qword ptr [rbp - 48], r14
	mov	ecx, 1
	mov	r8d, 1
	lea	rdi, [rbp - 144]
	mov	rsi, rbx
	mov	rdx, r12
	call	rax
	movzx	eax, word ptr [rbp - 136]
	test	ax, ax
	jne	.LBB1_38
	mov	r14, qword ptr [rbp - 144]
	add	r13, r14
	mov	r14, qword ptr [rbp - 64]
	cmp	r13, r14
	jb	.LBB1_26
.LBB1_31:
	xor	r14d, r14d
	lea	r13, [rbp - 56]
	.p2align	4
.LBB1_32:
	lea	rsi, [r15 + r14]
	mov	r12d, 2
	sub	r12, r14
	mov	rdi, qword ptr [rbx + 24]
	lea	rax, [rdi + r12]
	cmp	rax, qword ptr [rbx + 16]
	ja	.LBB1_34
	add	rdi, qword ptr [rbx + 8]
	mov	rdx, r12
	call	memcpy@PLT
	add	qword ptr [rbx + 24], r12
	add	r14, r12
	cmp	r14, 2
	jb	.LBB1_32
	jmp	.LBB1_37
.LBB1_34:
	mov	rax, qword ptr [rbx]
	mov	rax, qword ptr [rax]
	mov	qword ptr [rbp - 56], rsi
	mov	qword ptr [rbp - 48], r12
	mov	ecx, 1
	mov	r8d, 1
	lea	rdi, [rbp - 144]
	mov	rsi, rbx
	mov	rdx, r13
	call	rax
	movzx	eax, word ptr [rbp - 136]
	test	ax, ax
	jne	.LBB1_38
	mov	r12, qword ptr [rbp - 144]
	add	r14, r12
	cmp	r14, 2
	jb	.LBB1_32
.LBB1_37:
	xor	eax, eax
.LBB1_38:
	add	rsp, 120
	pop	rbx
	pop	r12
	pop	r13
	pop	r14
	pop	r15
	pop	rbp
	.cfi_def_cfa rsp, 8
	ret
.LBB1_12:
	.cfi_def_cfa rbp, 16
	neg	r15
	lea	r14, [rax + rbp]
	add	r14, -144
	xor	r13d, r13d
	.p2align	4
.LBB1_13:
	lea	rsi, [r14 + r13]
	mov	r12, r15
	sub	r12, r13
	mov	rdi, qword ptr [rbx + 24]
	lea	rax, [rdi + r12]
	cmp	rax, qword ptr [rbx + 16]
	ja	.LBB1_15
	add	rdi, qword ptr [rbx + 8]
	mov	rdx, r12
	call	memcpy@PLT
	add	qword ptr [rbx + 24], r12
	add	r13, r12
	cmp	r13, r15
	jb	.LBB1_13
	jmp	.LBB1_18
.LBB1_15:
	mov	rax, qword ptr [rbx]
	mov	rax, qword ptr [rax]
	mov	qword ptr [rbp - 160], rsi
	mov	qword ptr [rbp - 152], r12
	mov	ecx, 1
	mov	r8d, 1
	lea	rdi, [rbp - 56]
	mov	rsi, rbx
	lea	rdx, [rbp - 160]
	call	rax
	movzx	eax, word ptr [rbp - 48]
	test	ax, ax
	jne	.LBB1_38
	mov	r12, qword ptr [rbp - 56]
	add	r13, r12
	cmp	r13, r15
	jb	.LBB1_13
	jmp	.LBB1_18
.Lfunc_end1:
	.size	serializer.CommandSerializer.serializeArgument__anon_4640, .Lfunc_end1-serializer.CommandSerializer.serializeArgument__anon_4640
	.cfi_endproc

	.p2align	4
	.type	Io.Writer.print__anon_4619,@function
Io.Writer.print__anon_4619:
	.cfi_startproc
	push	rbp
	.cfi_def_cfa_offset 16
	.cfi_offset rbp, -16
	mov	rbp, rsp
	.cfi_def_cfa_register rbp
	push	r15
	push	r14
	push	r13
	push	r12
	push	rbx
	sub	rsp, 104
	.cfi_offset rbx, -56
	.cfi_offset r12, -48
	.cfi_offset r13, -40
	.cfi_offset r14, -32
	.cfi_offset r15, -24
	mov	rbx, rdi
	lea	r12, [rip + __anon_7087]
	lea	r14, [rbp - 137]
	lea	r15, [rbp - 56]
.LBB2_1:
	mov	rax, qword ptr [rbx + 24]
	cmp	rax, qword ptr [rbx + 16]
	jb	.LBB2_2
	mov	r13, rsi
	mov	rax, qword ptr [rbx]
	mov	rax, qword ptr [rax]
	mov	qword ptr [rbp - 56], r12
	mov	qword ptr [rbp - 48], 1
	mov	ecx, 1
	mov	r8d, 1
	mov	rdi, r14
	mov	rsi, rbx
	mov	rdx, r15
	call	rax
	movzx	eax, word ptr [rbp - 129]
	test	ax, ax
	jne	.LBB2_17
	cmp	qword ptr [rbp - 137], 0
	mov	rsi, r13
	je	.LBB2_1
	jmp	.LBB2_5
.LBB2_2:
	mov	rcx, qword ptr [rbx + 8]
	mov	byte ptr [rcx + rax], 42
	inc	qword ptr [rbx + 24]
.LBB2_5:
	lea	r12, [rbp - 73]
	or	sil, 48
	mov	byte ptr [rbp - 73], sil
	lea	r14, [rbp - 56]
	lea	r15, [rbp - 72]
.LBB2_6:
	mov	rax, qword ptr [rbx + 24]
	cmp	rax, qword ptr [rbx + 16]
	jb	.LBB2_7
	mov	rax, qword ptr [rbx]
	mov	rax, qword ptr [rax]
	mov	qword ptr [rbp - 72], r12
	mov	qword ptr [rbp - 64], 1
	mov	ecx, 1
	mov	r8d, 1
	mov	rdi, r14
	mov	rsi, rbx
	mov	rdx, r15
	call	rax
	movzx	eax, word ptr [rbp - 48]
	test	ax, ax
	jne	.LBB2_17
	cmp	qword ptr [rbp - 56], 0
	je	.LBB2_6
	jmp	.LBB2_10
.LBB2_7:
	mov	rcx, qword ptr [rbx + 8]
	movzx	edx, byte ptr [rbp - 73]
	mov	byte ptr [rcx + rax], dl
	inc	qword ptr [rbx + 24]
.LBB2_10:
	xor	r13d, r13d
	lea	r14, [rip + __anon_7106]
	lea	r15, [rbp - 56]
	.p2align	4
.LBB2_11:
	lea	rsi, [r14 + r13]
	mov	r12d, 2
	sub	r12, r13
	mov	rdi, qword ptr [rbx + 24]
	lea	rax, [rdi + r12]
	cmp	rax, qword ptr [rbx + 16]
	ja	.LBB2_13
	add	rdi, qword ptr [rbx + 8]
	mov	rdx, r12
	call	memcpy@PLT
	add	qword ptr [rbx + 24], r12
	add	r13, r12
	cmp	r13, 2
	jb	.LBB2_11
	jmp	.LBB2_16
.LBB2_13:
	mov	rax, qword ptr [rbx]
	mov	rax, qword ptr [rax]
	mov	qword ptr [rbp - 56], rsi
	mov	qword ptr [rbp - 48], r12
	mov	ecx, 1
	mov	r8d, 1
	lea	rdi, [rbp - 137]
	mov	rsi, rbx
	mov	rdx, r15
	call	rax
	movzx	eax, word ptr [rbp - 129]
	test	ax, ax
	jne	.LBB2_17
	mov	r12, qword ptr [rbp - 137]
	add	r13, r12
	cmp	r13, 2
	jb	.LBB2_11
.LBB2_16:
	xor	eax, eax
.LBB2_17:
	add	rsp, 104
	pop	rbx
	pop	r12
	pop	r13
	pop	r14
	pop	r15
	pop	rbp
	.cfi_def_cfa rsp, 8
	ret
.Lfunc_end2:
	.size	Io.Writer.print__anon_4619, .Lfunc_end2-Io.Writer.print__anon_4619
	.cfi_endproc

	.p2align	4
	.type	serializer.CommandSerializer.serializeArgument__anon_4810,@function
serializer.CommandSerializer.serializeArgument__anon_4810:
	.cfi_startproc
	push	rbp
	.cfi_def_cfa_offset 16
	.cfi_offset rbp, -16
	mov	rbp, rsp
	.cfi_def_cfa_register rbp
	push	r15
	push	r14
	push	r13
	push	r12
	push	rbx
	sub	rsp, 120
	.cfi_offset rbx, -56
	.cfi_offset r12, -48
	.cfi_offset r13, -40
	.cfi_offset r14, -32
	.cfi_offset r15, -24
	mov	rbx, rdi
	movzx	eax, word ptr [rsi + 4]
	mov	word ptr [rbp - 60], ax
	mov	eax, dword ptr [rsi]
	mov	dword ptr [rbp - 64], eax
	lea	r12, [rip + __anon_7133]
	lea	r14, [rbp - 148]
	lea	r15, [rbp - 56]
.LBB3_1:
	mov	rax, qword ptr [rbx + 24]
	cmp	rax, qword ptr [rbx + 16]
	jb	.LBB3_2
	mov	rax, qword ptr [rbx]
	mov	rax, qword ptr [rax]
	mov	qword ptr [rbp - 56], r12
	mov	qword ptr [rbp - 48], 1
	mov	ecx, 1
	mov	r8d, 1
	mov	rdi, r14
	mov	rsi, rbx
	mov	rdx, r15
	call	rax
	movzx	eax, word ptr [rbp - 140]
	test	ax, ax
	jne	.LBB3_29
	cmp	qword ptr [rbp - 148], 0
	je	.LBB3_1
	jmp	.LBB3_5
.LBB3_2:
	mov	rcx, qword ptr [rbx + 8]
	mov	byte ptr [rcx + rax], 36
	inc	qword ptr [rbx + 24]
.LBB3_5:
	lea	r12, [rbp - 84]
	mov	byte ptr [rbp - 84], 53
	lea	r14, [rbp - 56]
	lea	r15, [rbp - 80]
.LBB3_6:
	mov	rax, qword ptr [rbx + 24]
	cmp	rax, qword ptr [rbx + 16]
	jb	.LBB3_7
	mov	rax, qword ptr [rbx]
	mov	rax, qword ptr [rax]
	mov	qword ptr [rbp - 80], r12
	mov	qword ptr [rbp - 72], 1
	mov	ecx, 1
	mov	r8d, 1
	mov	rdi, r14
	mov	rsi, rbx
	mov	rdx, r15
	call	rax
	movzx	eax, word ptr [rbp - 48]
	test	ax, ax
	jne	.LBB3_29
	cmp	qword ptr [rbp - 56], 0
	je	.LBB3_6
	jmp	.LBB3_10
.LBB3_7:
	mov	rcx, qword ptr [rbx + 8]
	movzx	edx, byte ptr [rbp - 84]
	mov	byte ptr [rcx + rax], dl
	inc	qword ptr [rbx + 24]
.LBB3_10:
	xor	r14d, r14d
	lea	r13, [rip + __anon_7106]
	lea	r15, [rbp - 56]
	.p2align	4
.LBB3_11:
	lea	rsi, [r14 + r13]
	mov	r12d, 2
	sub	r12, r14
	mov	rdi, qword ptr [rbx + 24]
	lea	rax, [rdi + r12]
	cmp	rax, qword ptr [rbx + 16]
	ja	.LBB3_13
	add	rdi, qword ptr [rbx + 8]
	mov	rdx, r12
	call	memcpy@PLT
	add	qword ptr [rbx + 24], r12
	add	r14, r12
	cmp	r14, 2
	jb	.LBB3_11
	jmp	.LBB3_16
.LBB3_13:
	mov	rax, qword ptr [rbx]
	mov	rax, qword ptr [rax]
	mov	qword ptr [rbp - 56], rsi
	mov	qword ptr [rbp - 48], r12
	mov	ecx, 1
	mov	r8d, 1
	lea	rdi, [rbp - 148]
	mov	rsi, rbx
	mov	rdx, r15
	call	rax
	movzx	eax, word ptr [rbp - 140]
	test	ax, ax
	jne	.LBB3_29
	mov	r12, qword ptr [rbp - 148]
	add	r14, r12
	cmp	r14, 2
	jb	.LBB3_11
.LBB3_16:
	movzx	eax, word ptr [rbp - 60]
	mov	word ptr [rbp - 144], ax
	mov	eax, dword ptr [rbp - 64]
	mov	dword ptr [rbp - 148], eax
	xor	r14d, r14d
	lea	r15, [rbp - 80]
	.p2align	4
.LBB3_17:
	lea	rsi, [r14 + rbp]
	add	rsi, -148
	mov	r12d, 5
	sub	r12, r14
	mov	rdi, qword ptr [rbx + 24]
	lea	rax, [rdi + r12]
	cmp	rax, qword ptr [rbx + 16]
	ja	.LBB3_19
	add	rdi, qword ptr [rbx + 8]
	mov	rdx, r12
	call	memcpy@PLT
	add	qword ptr [rbx + 24], r12
	add	r14, r12
	cmp	r14, 5
	jb	.LBB3_17
	jmp	.LBB3_22
.LBB3_19:
	mov	rax, qword ptr [rbx]
	mov	rax, qword ptr [rax]
	mov	qword ptr [rbp - 80], rsi
	mov	qword ptr [rbp - 72], r12
	mov	ecx, 1
	mov	r8d, 1
	lea	rdi, [rbp - 56]
	mov	rsi, rbx
	mov	rdx, r15
	call	rax
	movzx	eax, word ptr [rbp - 48]
	test	ax, ax
	jne	.LBB3_29
	mov	r12, qword ptr [rbp - 56]
	add	r14, r12
	cmp	r14, 5
	jb	.LBB3_17
.LBB3_22:
	xor	r14d, r14d
	lea	r15, [rbp - 56]
	.p2align	4
.LBB3_23:
	lea	rsi, [r14 + r13]
	mov	r12d, 2
	sub	r12, r14
	mov	rdi, qword ptr [rbx + 24]
	lea	rax, [rdi + r12]
	cmp	rax, qword ptr [rbx + 16]
	ja	.LBB3_25
	add	rdi, qword ptr [rbx + 8]
	mov	rdx, r12
	call	memcpy@PLT
	add	qword ptr [rbx + 24], r12
	add	r14, r12
	cmp	r14, 2
	jb	.LBB3_23
	jmp	.LBB3_28
.LBB3_25:
	mov	rax, qword ptr [rbx]
	mov	rax, qword ptr [rax]
	mov	qword ptr [rbp - 56], rsi
	mov	qword ptr [rbp - 48], r12
	mov	ecx, 1
	mov	r8d, 1
	lea	rdi, [rbp - 148]
	mov	rsi, rbx
	mov	rdx, r15
	call	rax
	movzx	eax, word ptr [rbp - 140]
	test	ax, ax
	jne	.LBB3_29
	mov	r12, qword ptr [rbp - 148]
	add	r14, r12
	cmp	r14, 2
	jb	.LBB3_23
.LBB3_28:
	xor	eax, eax
.LBB3_29:
	add	rsp, 120
	pop	rbx
	pop	r12
	pop	r13
	pop	r14
	pop	r15
	pop	rbp
	.cfi_def_cfa rsp, 8
	ret
.Lfunc_end3:
	.size	serializer.CommandSerializer.serializeArgument__anon_4810, .Lfunc_end3-serializer.CommandSerializer.serializeArgument__anon_4810
	.cfi_endproc

	.p2align	4
	.type	serializer.CommandSerializer.serializeArgument__anon_4820,@function
serializer.CommandSerializer.serializeArgument__anon_4820:
	.cfi_startproc
	push	rbp
	.cfi_def_cfa_offset 16
	.cfi_offset rbp, -16
	mov	rbp, rsp
	.cfi_def_cfa_register rbp
	push	r15
	push	r14
	push	r13
	push	r12
	push	rbx
	sub	rsp, 104
	.cfi_offset rbx, -56
	.cfi_offset r12, -48
	.cfi_offset r13, -40
	.cfi_offset r14, -32
	.cfi_offset r15, -24
	mov	r14d, esi
	mov	rbx, rdi
	lea	r13, [rip + __anon_7133]
	lea	r15, [rbp - 137]
	lea	r12, [rbp - 56]
.LBB4_1:
	mov	rax, qword ptr [rbx + 24]
	cmp	rax, qword ptr [rbx + 16]
	jb	.LBB4_2
	mov	rax, qword ptr [rbx]
	mov	rax, qword ptr [rax]
	mov	qword ptr [rbp - 56], r13
	mov	qword ptr [rbp - 48], 1
	mov	ecx, 1
	mov	r8d, 1
	mov	rdi, r15
	mov	rsi, rbx
	mov	rdx, r12
	call	rax
	movzx	eax, word ptr [rbp - 129]
	test	ax, ax
	jne	.LBB4_28
	cmp	qword ptr [rbp - 137], 0
	je	.LBB4_1
	jmp	.LBB4_5
.LBB4_2:
	mov	rcx, qword ptr [rbx + 8]
	mov	byte ptr [rcx + rax], 36
	inc	qword ptr [rbx + 24]
.LBB4_5:
	lea	r13, [rbp - 73]
	mov	byte ptr [rbp - 73], 49
	lea	r15, [rbp - 56]
	lea	r12, [rbp - 72]
.LBB4_6:
	mov	rax, qword ptr [rbx + 24]
	cmp	rax, qword ptr [rbx + 16]
	jb	.LBB4_7
	mov	rax, qword ptr [rbx]
	mov	rax, qword ptr [rax]
	mov	qword ptr [rbp - 72], r13
	mov	qword ptr [rbp - 64], 1
	mov	ecx, 1
	mov	r8d, 1
	mov	rdi, r15
	mov	rsi, rbx
	mov	rdx, r12
	call	rax
	movzx	eax, word ptr [rbp - 48]
	test	ax, ax
	jne	.LBB4_28
	cmp	qword ptr [rbp - 56], 0
	je	.LBB4_6
	jmp	.LBB4_10
.LBB4_7:
	mov	rcx, qword ptr [rbx + 8]
	movzx	edx, byte ptr [rbp - 73]
	mov	byte ptr [rcx + rax], dl
	inc	qword ptr [rbx + 24]
.LBB4_10:
	xor	r12d, r12d
	lea	r15, [rip + __anon_7106]
	.p2align	4
.LBB4_11:
	lea	rsi, [r15 + r12]
	mov	r13d, 2
	sub	r13, r12
	mov	rdi, qword ptr [rbx + 24]
	lea	rax, [rdi + r13]
	cmp	rax, qword ptr [rbx + 16]
	ja	.LBB4_13
	add	rdi, qword ptr [rbx + 8]
	mov	rdx, r13
	call	memcpy@PLT
	add	qword ptr [rbx + 24], r13
	add	r12, r13
	cmp	r12, 2
	jb	.LBB4_11
	jmp	.LBB4_16
.LBB4_13:
	mov	rax, qword ptr [rbx]
	mov	rax, qword ptr [rax]
	mov	qword ptr [rbp - 56], rsi
	mov	qword ptr [rbp - 48], r13
	mov	ecx, 1
	mov	r8d, 1
	lea	rdi, [rbp - 137]
	mov	rsi, rbx
	lea	rdx, [rbp - 56]
	call	rax
	movzx	eax, word ptr [rbp - 129]
	test	ax, ax
	jne	.LBB4_28
	mov	r13, qword ptr [rbp - 137]
	add	r12, r13
	cmp	r12, 2
	jb	.LBB4_11
.LBB4_16:
	mov	word ptr [rbp - 137], r14w
	lea	r14, [rbp - 56]
	lea	r12, [rbp - 72]
.LBB4_17:
	mov	rax, qword ptr [rbx + 24]
	cmp	rax, qword ptr [rbx + 16]
	lea	rcx, [rbp - 137]
	jb	.LBB4_18
	mov	rax, qword ptr [rbx]
	mov	rax, qword ptr [rax]
	mov	qword ptr [rbp - 72], rcx
	mov	qword ptr [rbp - 64], 1
	mov	ecx, 1
	mov	r8d, 1
	mov	rdi, r14
	mov	rsi, rbx
	mov	rdx, r12
	call	rax
	movzx	eax, word ptr [rbp - 48]
	test	ax, ax
	jne	.LBB4_28
	cmp	qword ptr [rbp - 56], 0
	je	.LBB4_17
	jmp	.LBB4_21
.LBB4_18:
	mov	rcx, qword ptr [rbx + 8]
	movzx	edx, byte ptr [rbp - 137]
	mov	byte ptr [rcx + rax], dl
	inc	qword ptr [rbx + 24]
.LBB4_21:
	xor	r14d, r14d
	lea	r13, [rbp - 56]
	.p2align	4
.LBB4_22:
	lea	rsi, [r15 + r14]
	mov	r12d, 2
	sub	r12, r14
	mov	rdi, qword ptr [rbx + 24]
	lea	rax, [rdi + r12]
	cmp	rax, qword ptr [rbx + 16]
	ja	.LBB4_24
	add	rdi, qword ptr [rbx + 8]
	mov	rdx, r12
	call	memcpy@PLT
	add	qword ptr [rbx + 24], r12
	add	r14, r12
	cmp	r14, 2
	jb	.LBB4_22
	jmp	.LBB4_27
.LBB4_24:
	mov	rax, qword ptr [rbx]
	mov	rax, qword ptr [rax]
	mov	qword ptr [rbp - 56], rsi
	mov	qword ptr [rbp - 48], r12
	mov	ecx, 1
	mov	r8d, 1
	lea	rdi, [rbp - 137]
	mov	rsi, rbx
	mov	rdx, r13
	call	rax
	movzx	eax, word ptr [rbp - 129]
	test	ax, ax
	jne	.LBB4_28
	mov	r12, qword ptr [rbp - 137]
	add	r14, r12
	cmp	r14, 2
	jb	.LBB4_22
.LBB4_27:
	xor	eax, eax
.LBB4_28:
	add	rsp, 104
	pop	rbx
	pop	r12
	pop	r13
	pop	r14
	pop	r15
	pop	rbp
	.cfi_def_cfa rsp, 8
	ret
.Lfunc_end4:
	.size	serializer.CommandSerializer.serializeArgument__anon_4820, .Lfunc_end4-serializer.CommandSerializer.serializeArgument__anon_4820
	.cfi_endproc

	.p2align	4
	.type	parser.RESP3Parser.parse__anon_4833,@function
parser.RESP3Parser.parse__anon_4833:
	.cfi_startproc
	push	rbp
	.cfi_def_cfa_offset 16
	.cfi_offset rbp, -16
	mov	rbp, rsp
	.cfi_def_cfa_register rbp
	push	r15
	push	r14
	push	r13
	push	r12
	push	rbx
	sub	rsp, 360
	.cfi_offset rbx, -56
	.cfi_offset r12, -48
	.cfi_offset r13, -40
	.cfi_offset r14, -32
	.cfi_offset r15, -24
	mov	r14, rsi
	mov	rbx, rdi
	mov	rax, qword ptr [rsi + 24]
	cmp	rax, qword ptr [rsi + 32]
	jae	.LBB5_38
.LBB5_1:
	mov	rcx, qword ptr [r14 + 8]
	movzx	ecx, byte ptr [rcx + rax]
	inc	rax
	mov	qword ptr [r14 + 24], rax
	cmp	cl, 124
	jne	.LBB5_5
	mov	edi, 37
	mov	rsi, r14
	call	parser.void.VoidParser.discardOne
	test	ax, ax
	jne	.LBB5_36
	mov	rax, qword ptr [r14 + 24]
	cmp	rax, qword ptr [r14 + 32]
	jae	.LBB5_40
.LBB5_4:
	mov	rcx, qword ptr [r14 + 8]
	movzx	ecx, byte ptr [rcx + rax]
	inc	rax
	mov	qword ptr [r14 + 24], rax
.LBB5_5:
	movzx	edi, cl
	lea	edx, [rdi - 33]
	cmp	edx, 62
	ja	.LBB5_24
	movabs	rsi, 4611686018427392001
	bt	rsi, rdx
	jae	.LBB5_24
	cmp	cl, 33
	mov	qword ptr [rbp - 48], rbx
	je	.LBB5_16
	cmp	edi, 45
	jne	.LBB5_26
	vmovups	ymm0, ymmword ptr [rip + .L__unnamed_1+16]
	vmovups	ymmword ptr [rbp - 384], ymm0
	vmovups	ymm0, ymmword ptr [rip + .L__unnamed_1]
	vmovups	ymmword ptr [rbp - 400], ymm0
	lea	rax, [rbp - 392]
	lea	rcx, [rip + __anon_4058]
	mov	qword ptr [rbp - 248], rcx
	mov	qword ptr [rbp - 240], rax
	mov	qword ptr [rbp - 232], 32
	mov	qword ptr [rbp - 224], 0
	lea	rdi, [rbp - 160]
	lea	rdx, [rbp - 248]
	mov	rsi, r14
	mov	ecx, 32
	vzeroupper
	call	Io.Reader.streamDelimiter
	movzx	eax, word ptr [rbp - 152]
	test	ax, ax
	jne	.LBB5_35
	mov	rax, qword ptr [rbp - 160]
	mov	qword ptr [rbp - 400], rax
	mov	r13, qword ptr [r14 + 24]
	mov	r15, qword ptr [r14 + 32]
	inc	r13
	mov	qword ptr [r14 + 24], r13
	mov	rbx, -1
	cmp	r13, r15
	jb	.LBB5_11
	jmp	.LBB5_13
	.p2align	4
.LBB5_12:
	add	r13, r12
	mov	qword ptr [r14 + 24], r13
	sub	rbx, r12
	cmp	r13, r15
	jb	.LBB5_11
.LBB5_13:
	mov	esi, 1
	mov	rdi, r14
	call	Io.Reader.fillUnbuffered
	cmp	ax, 6
	je	.LBB5_35
	movzx	eax, ax
	cmp	eax, 7
	je	.LBB5_31
	mov	r13, qword ptr [r14 + 24]
	mov	r15, qword ptr [r14 + 32]
	.p2align	4
.LBB5_11:
	mov	rsi, qword ptr [r14 + 8]
	add	rsi, r13
	mov	r12, r15
	sub	r12, r13
	cmp	r12, rbx
	cmovae	r12, rbx
	lea	rdi, [rbp - 112]
	mov	rdx, r12
	xor	ecx, ecx
	mov	r8d, 10
	call	mem.findScalarPos__anon_14379
	cmp	byte ptr [rbp - 104], 0
	je	.LBB5_12
	add	r13, qword ptr [rbp - 112]
	mov	qword ptr [r14 + 24], r13
	mov	ax, 7
	cmp	r13, r15
	je	.LBB5_35
.LBB5_32:
	inc	r13
	mov	qword ptr [r14 + 24], r13
	vmovups	ymm0, ymmword ptr [rbp - 400]
	vmovups	ymm1, ymmword ptr [rbp - 384]
	jmp	.LBB5_33
.LBB5_16:
	lea	rdi, [rbp - 184]
	mov	rsi, r14
	call	Io.Reader.takeSentinel__anon_7337
	movzx	eax, word ptr [rbp - 168]
	test	ax, ax
	jne	.LBB5_35
	mov	rsi, qword ptr [rbp - 184]
	mov	rdx, qword ptr [rbp - 176]
	lea	rdi, [rbp - 128]
	call	fmt.parseInt__anon_7341
	movzx	eax, word ptr [rbp - 120]
	test	ax, ax
	jne	.LBB5_35
	mov	r13, qword ptr [rbp - 128]
	mov	rax, qword ptr [r14 + 24]
	mov	rcx, qword ptr [r14 + 32]
	inc	rax
	mov	r15, rax
	sub	r15, rcx
	ja	.LBB5_45
	mov	qword ptr [r14 + 24], rax
.LBB5_20:
	vmovups	ymm0, ymmword ptr [rip + .L__unnamed_1+16]
	vmovups	ymmword ptr [rbp - 336], ymm0
	vmovups	ymm0, ymmword ptr [rip + .L__unnamed_1]
	vmovups	ymmword ptr [rbp - 352], ymm0
	lea	rax, [rbp - 344]
	lea	rcx, [rip + __anon_4058]
	mov	qword ptr [rbp - 216], rcx
	mov	qword ptr [rbp - 208], rax
	mov	qword ptr [rbp - 200], 32
	mov	qword ptr [rbp - 192], 0
	lea	rdi, [rbp - 144]
	lea	rdx, [rbp - 216]
	mov	rsi, r14
	mov	ecx, 32
	vzeroupper
	call	Io.Reader.streamDelimiter
	movzx	eax, word ptr [rbp - 136]
	test	ax, ax
	jne	.LBB5_35
	mov	rcx, qword ptr [rbp - 144]
	mov	qword ptr [rbp - 352], rcx
	mov	rdx, qword ptr [r14 + 24]
	mov	rax, qword ptr [r14 + 32]
	sub	r13, rcx
	lea	rcx, [rdx + r13]
	add	rcx, 3
	mov	r15, rcx
	sub	r15, rax
	ja	.LBB5_48
	mov	qword ptr [r14 + 24], rcx
.LBB5_23:
	vmovups	ymm0, ymmword ptr [rbp - 352]
	vmovups	ymm1, ymmword ptr [rbp - 336]
.LBB5_33:
	vmovups	ymmword ptr [rbp - 96], ymm1
	jmp	.LBB5_34
.LBB5_24:
	mov	rsi, r14
	call	parser.void.VoidParser.discardOne
	test	ax, ax
	jne	.LBB5_36
	vxorps	xmm0, xmm0, xmm0
	vmovups	ymmword ptr [rbp - 288], ymm0
	vmovups	ymmword ptr [rbp - 304], ymm0
	xor	eax, eax
	jmp	.LBB5_36
.LBB5_26:
	add	rax, 2
	mov	rcx, qword ptr [r14 + 32]
	mov	r15, rax
	sub	r15, rcx
	ja	.LBB5_42
	mov	qword ptr [r14 + 24], rax
.LBB5_28:
	vmovups	ymm0, ymmword ptr [rip + .L__unnamed_2+24]
	vmovups	ymmword ptr [rbp - 88], ymm0
	vmovups	ymm0, ymmword ptr [rip + .L__unnamed_2]
.LBB5_34:
	vmovups	ymmword ptr [rbp - 112], ymm0
	vmovups	ymm0, ymmword ptr [rbp - 112]
	vmovups	ymm1, ymmword ptr [rbp - 96]
	vmovups	ymmword ptr [rbp - 304], ymm0
	vmovups	ymmword ptr [rbp - 288], ymm1
	xor	eax, eax
.LBB5_35:
	mov	rbx, qword ptr [rbp - 48]
.LBB5_36:
	vmovups	ymm0, ymmword ptr [rbp - 304]
	vmovups	ymm1, ymmword ptr [rbp - 288]
	vmovups	ymmword ptr [rbx + 16], ymm1
	vmovups	ymmword ptr [rbx], ymm0
	mov	word ptr [rbx + 48], ax
.LBB5_37:
	add	rsp, 360
	pop	rbx
	pop	r12
	pop	r13
	pop	r14
	pop	r15
	pop	rbp
	.cfi_def_cfa rsp, 8
	vzeroupper
	ret
.LBB5_31:
	.cfi_def_cfa rbp, 16
	mov	r13, qword ptr [r14 + 24]
	mov	r15, qword ptr [r14 + 32]
	mov	ax, 7
	cmp	r13, r15
	je	.LBB5_35
	jmp	.LBB5_32
.LBB5_38:
	mov	esi, 1
	mov	rdi, r14
	call	Io.Reader.fillUnbuffered
	test	ax, ax
	je	.LBB5_58
	mov	word ptr [rbx + 48], ax
	jmp	.LBB5_37
.LBB5_40:
	mov	esi, 1
	mov	rdi, r14
	call	Io.Reader.fillUnbuffered
	test	ax, ax
	jne	.LBB5_36
	mov	rax, qword ptr [r14 + 24]
	jmp	.LBB5_4
.LBB5_42:
	mov	qword ptr [r14 + 24], rcx
	lea	r12, [rbp - 112]
.LBB5_43:
	mov	rax, qword ptr [r14]
	mov	rdi, r12
	mov	rsi, r14
	mov	rdx, r15
	call	qword ptr [rax + 8]
	movzx	eax, word ptr [rbp - 104]
	test	eax, eax
	jne	.LBB5_51
	sub	r15, qword ptr [rbp - 112]
	jne	.LBB5_43
	jmp	.LBB5_28
.LBB5_45:
	mov	qword ptr [r14 + 24], rcx
	lea	r12, [rbp - 112]
.LBB5_46:
	mov	rax, qword ptr [r14]
	mov	rdi, r12
	mov	rsi, r14
	mov	rdx, r15
	call	qword ptr [rax + 8]
	movzx	eax, word ptr [rbp - 104]
	test	eax, eax
	jne	.LBB5_53
	sub	r15, qword ptr [rbp - 112]
	jne	.LBB5_46
	jmp	.LBB5_20
.LBB5_48:
	mov	qword ptr [r14 + 24], rax
	lea	r12, [rbp - 112]
.LBB5_49:
	mov	rax, qword ptr [r14]
	mov	rdi, r12
	mov	rsi, r14
	mov	rdx, r15
	call	qword ptr [rax + 8]
	movzx	eax, word ptr [rbp - 104]
	test	eax, eax
	jne	.LBB5_55
	sub	r15, qword ptr [rbp - 112]
	jne	.LBB5_49
	jmp	.LBB5_23
.LBB5_51:
	cmp	eax, 6
	je	.LBB5_56
	mov	ax, 7
	test	r15, r15
	jne	.LBB5_35
	jmp	.LBB5_28
.LBB5_53:
	cmp	eax, 6
	je	.LBB5_56
	mov	ax, 7
	cmp	r15, 1
	jne	.LBB5_20
	jmp	.LBB5_35
.LBB5_55:
	cmp	eax, 6
	jne	.LBB5_57
.LBB5_56:
	mov	ax, 6
	jmp	.LBB5_35
.LBB5_57:
	mov	ax, 7
	test	r15, r15
	jne	.LBB5_35
	jmp	.LBB5_23
.LBB5_58:
	mov	rax, qword ptr [r14 + 24]
	jmp	.LBB5_1
.Lfunc_end5:
	.size	parser.RESP3Parser.parse__anon_4833, .Lfunc_end5-parser.RESP3Parser.parse__anon_4833
	.cfi_endproc

	.p2align	4
	.type	mem.eql__anon_4857,@function
mem.eql__anon_4857:
	.cfi_startproc
	test	rsi, rsi
	movabs	rax, -6148914691236517206
	mov	r8, rdi
	cmove	r8, rax
	test	rcx, rcx
	cmove	rdx, rax
	cmp	rsi, rcx
	jne	.LBB6_1
	test	rsi, rsi
	sete	al
	cmp	r8, rdx
	sete	cl
	or	cl, al
	mov	al, 1
	jne	.LBB6_2
	push	rbp
	.cfi_def_cfa_offset 16
	.cfi_offset rbp, -16
	mov	rbp, rsp
	.cfi_def_cfa_register rbp
	cmp	rsi, 16
	ja	.LBB6_8
	cmp	rsi, 4
	jae	.LBB6_14
	movzx	eax, byte ptr [rdi]
	movzx	ecx, byte ptr [rdi + rsi - 1]
	mov	r8, rsi
	shr	r8
	xor	al, byte ptr [rdx]
	xor	cl, byte ptr [rdx + rsi - 1]
	movzx	esi, byte ptr [rdi + r8]
	or	cl, al
	xor	sil, byte ptr [rdx + r8]
	or	sil, cl
	sete	al
	pop	rbp
	.cfi_def_cfa rsp, 8
	.cfi_restore rbp
	ret
.LBB6_1:
	xor	eax, eax
.LBB6_2:
	ret
.LBB6_8:
	.cfi_def_cfa rbp, 16
	.cfi_offset rbp, -16
	cmp	rsi, 33
	jae	.LBB6_9
	vmovdqu	xmm0, xmmword ptr [rdi]
	vmovdqu	xmm1, xmmword ptr [rdi + rsi - 16]
	vpcmpneqb	k0, xmm0, xmmword ptr [rdx]
	vpcmpneqb	k1, xmm1, xmmword ptr [rdx + rsi - 16]
	kortestw	k0, k1
	sete	al
	pop	rbp
	.cfi_def_cfa rsp, 8
	.cfi_restore rbp
	ret
.LBB6_14:
	.cfi_def_cfa rbp, 16
	.cfi_offset rbp, -16
	lea	rax, [rsi - 4]
	mov	ecx, esi
	shr	ecx
	and	ecx, 12
	sub	rax, rcx
	mov	r8d, dword ptr [rdx]
	mov	r9d, dword ptr [rdx + rsi - 4]
	mov	r10d, dword ptr [rdx + rcx]
	mov	edx, dword ptr [rdx + rax]
	xor	r9d, dword ptr [rdi + rsi - 4]
	xor	r8d, dword ptr [rdi]
	xor	r10d, dword ptr [rdi + rcx]
	or	r8d, r9d
	or	r10d, r8d
	xor	edx, dword ptr [rdi + rax]
	or	edx, r10d
	sete	al
	pop	rbp
	.cfi_def_cfa rsp, 8
	.cfi_restore rbp
	ret
.LBB6_9:
	.cfi_def_cfa rbp, 16
	.cfi_offset rbp, -16
	lea	rax, [rsi - 1]
	shr	rax, 5
	xor	ecx, ecx
	.p2align	4
.LBB6_11:
	vmovdqu	ymm0, ymmword ptr [r8 + rcx]
	vpxor	ymm0, ymm0, ymmword ptr [rdx + rcx]
	vptest	ymm0, ymm0
	jne	.LBB6_12
	add	rcx, 32
	dec	rax
	jne	.LBB6_11
	vmovdqu	ymm0, ymmword ptr [r8 + rsi - 32]
	vpxor	ymm0, ymm0, ymmword ptr [rdx + rsi - 32]
	vptest	ymm0, ymm0
	sete	al
	pop	rbp
	.cfi_def_cfa rsp, 8
	.cfi_restore rbp
	vzeroupper
	ret
.LBB6_12:
	.cfi_def_cfa rbp, 16
	.cfi_offset rbp, -16
	xor	eax, eax
	pop	rbp
	.cfi_def_cfa rsp, 8
	.cfi_restore rbp
	vzeroupper
	ret
.Lfunc_end6:
	.size	mem.eql__anon_4857, .Lfunc_end6-mem.eql__anon_4857
	.cfi_endproc

	.p2align	4
	.type	serializer.CommandSerializer.serializeArgument__anon_4980,@function
serializer.CommandSerializer.serializeArgument__anon_4980:
	.cfi_startproc
	push	rbp
	.cfi_def_cfa_offset 16
	.cfi_offset rbp, -16
	mov	rbp, rsp
	.cfi_def_cfa_register rbp
	push	r15
	push	r14
	push	r13
	push	r12
	push	rbx
	sub	rsp, 120
	.cfi_offset rbx, -56
	.cfi_offset r12, -48
	.cfi_offset r13, -40
	.cfi_offset r14, -32
	.cfi_offset r15, -24
	mov	rbx, rdi
	mov	eax, dword ptr [rsi]
	mov	ecx, dword ptr [rsi + 3]
	mov	dword ptr [rbp - 61], ecx
	mov	dword ptr [rbp - 64], eax
	lea	r12, [rip + __anon_7133]
	lea	r14, [rbp - 148]
	lea	r15, [rbp - 56]
.LBB7_1:
	mov	rax, qword ptr [rbx + 24]
	cmp	rax, qword ptr [rbx + 16]
	jb	.LBB7_2
	mov	rax, qword ptr [rbx]
	mov	rax, qword ptr [rax]
	mov	qword ptr [rbp - 56], r12
	mov	qword ptr [rbp - 48], 1
	mov	ecx, 1
	mov	r8d, 1
	mov	rdi, r14
	mov	rsi, rbx
	mov	rdx, r15
	call	rax
	movzx	eax, word ptr [rbp - 140]
	test	ax, ax
	jne	.LBB7_29
	cmp	qword ptr [rbp - 148], 0
	je	.LBB7_1
	jmp	.LBB7_5
.LBB7_2:
	mov	rcx, qword ptr [rbx + 8]
	mov	byte ptr [rcx + rax], 36
	inc	qword ptr [rbx + 24]
.LBB7_5:
	lea	r12, [rbp - 84]
	mov	byte ptr [rbp - 84], 54
	lea	r14, [rbp - 56]
	lea	r15, [rbp - 80]
.LBB7_6:
	mov	rax, qword ptr [rbx + 24]
	cmp	rax, qword ptr [rbx + 16]
	jb	.LBB7_7
	mov	rax, qword ptr [rbx]
	mov	rax, qword ptr [rax]
	mov	qword ptr [rbp - 80], r12
	mov	qword ptr [rbp - 72], 1
	mov	ecx, 1
	mov	r8d, 1
	mov	rdi, r14
	mov	rsi, rbx
	mov	rdx, r15
	call	rax
	movzx	eax, word ptr [rbp - 48]
	test	ax, ax
	jne	.LBB7_29
	cmp	qword ptr [rbp - 56], 0
	je	.LBB7_6
	jmp	.LBB7_10
.LBB7_7:
	mov	rcx, qword ptr [rbx + 8]
	movzx	edx, byte ptr [rbp - 84]
	mov	byte ptr [rcx + rax], dl
	inc	qword ptr [rbx + 24]
.LBB7_10:
	xor	r14d, r14d
	lea	r13, [rip + __anon_7106]
	lea	r15, [rbp - 56]
	.p2align	4
.LBB7_11:
	lea	rsi, [r14 + r13]
	mov	r12d, 2
	sub	r12, r14
	mov	rdi, qword ptr [rbx + 24]
	lea	rax, [rdi + r12]
	cmp	rax, qword ptr [rbx + 16]
	ja	.LBB7_13
	add	rdi, qword ptr [rbx + 8]
	mov	rdx, r12
	call	memcpy@PLT
	add	qword ptr [rbx + 24], r12
	add	r14, r12
	cmp	r14, 2
	jb	.LBB7_11
	jmp	.LBB7_16
.LBB7_13:
	mov	rax, qword ptr [rbx]
	mov	rax, qword ptr [rax]
	mov	qword ptr [rbp - 56], rsi
	mov	qword ptr [rbp - 48], r12
	mov	ecx, 1
	mov	r8d, 1
	lea	rdi, [rbp - 148]
	mov	rsi, rbx
	mov	rdx, r15
	call	rax
	movzx	eax, word ptr [rbp - 140]
	test	ax, ax
	jne	.LBB7_29
	mov	r12, qword ptr [rbp - 148]
	add	r14, r12
	cmp	r14, 2
	jb	.LBB7_11
.LBB7_16:
	mov	eax, dword ptr [rbp - 64]
	mov	ecx, dword ptr [rbp - 61]
	mov	dword ptr [rbp - 145], ecx
	mov	dword ptr [rbp - 148], eax
	xor	r14d, r14d
	lea	r15, [rbp - 80]
	.p2align	4
.LBB7_17:
	lea	rsi, [r14 + rbp]
	add	rsi, -148
	mov	r12d, 6
	sub	r12, r14
	mov	rdi, qword ptr [rbx + 24]
	lea	rax, [rdi + r12]
	cmp	rax, qword ptr [rbx + 16]
	ja	.LBB7_19
	add	rdi, qword ptr [rbx + 8]
	mov	rdx, r12
	call	memcpy@PLT
	add	qword ptr [rbx + 24], r12
	add	r14, r12
	cmp	r14, 6
	jb	.LBB7_17
	jmp	.LBB7_22
.LBB7_19:
	mov	rax, qword ptr [rbx]
	mov	rax, qword ptr [rax]
	mov	qword ptr [rbp - 80], rsi
	mov	qword ptr [rbp - 72], r12
	mov	ecx, 1
	mov	r8d, 1
	lea	rdi, [rbp - 56]
	mov	rsi, rbx
	mov	rdx, r15
	call	rax
	movzx	eax, word ptr [rbp - 48]
	test	ax, ax
	jne	.LBB7_29
	mov	r12, qword ptr [rbp - 56]
	add	r14, r12
	cmp	r14, 6
	jb	.LBB7_17
.LBB7_22:
	xor	r14d, r14d
	lea	r15, [rbp - 56]
	.p2align	4
.LBB7_23:
	lea	rsi, [r14 + r13]
	mov	r12d, 2
	sub	r12, r14
	mov	rdi, qword ptr [rbx + 24]
	lea	rax, [rdi + r12]
	cmp	rax, qword ptr [rbx + 16]
	ja	.LBB7_25
	add	rdi, qword ptr [rbx + 8]
	mov	rdx, r12
	call	memcpy@PLT
	add	qword ptr [rbx + 24], r12
	add	r14, r12
	cmp	r14, 2
	jb	.LBB7_23
	jmp	.LBB7_28
.LBB7_25:
	mov	rax, qword ptr [rbx]
	mov	rax, qword ptr [rax]
	mov	qword ptr [rbp - 56], rsi
	mov	qword ptr [rbp - 48], r12
	mov	ecx, 1
	mov	r8d, 1
	lea	rdi, [rbp - 148]
	mov	rsi, rbx
	mov	rdx, r15
	call	rax
	movzx	eax, word ptr [rbp - 140]
	test	ax, ax
	jne	.LBB7_29
	mov	r12, qword ptr [rbp - 148]
	add	r14, r12
	cmp	r14, 2
	jb	.LBB7_23
.LBB7_28:
	xor	eax, eax
.LBB7_29:
	add	rsp, 120
	pop	rbx
	pop	r12
	pop	r13
	pop	r14
	pop	r15
	pop	rbp
	.cfi_def_cfa rsp, 8
	ret
.Lfunc_end7:
	.size	serializer.CommandSerializer.serializeArgument__anon_4980, .Lfunc_end7-serializer.CommandSerializer.serializeArgument__anon_4980
	.cfi_endproc

	.p2align	4
	.type	lib.API.connect,@function
lib.API.connect:
	.cfi_startproc
	push	rbp
	.cfi_def_cfa_offset 16
	.cfi_offset rbp, -16
	mov	rbp, rsp
	.cfi_def_cfa_register rbp
	push	r15
	push	r14
	push	r13
	push	r12
	push	rbx
	sub	rsp, 1912
	.cfi_offset rbx, -56
	.cfi_offset r12, -48
	.cfi_offset r13, -40
	.cfi_offset r14, -32
	.cfi_offset r15, -24
	mov	qword ptr [rbp - 48], rdi
	add	rdi, 16
	mov	qword ptr [rbp - 64], rdi
	lea	rax, [rip + __anon_6891]
	mov	qword ptr [rbp - 56], rax
	vxorps	xmm0, xmm0, xmm0
	vmovups	ymmword ptr [rbp - 328], ymm0
	vmovups	ymmword ptr [rbp - 312], ymm0
	mov	qword ptr [rbp - 352], 1
	lea	rax, [rbp - 1824]
	mov	qword ptr [rbp - 344], rax
	mov	qword ptr [rbp - 336], 1408
	vmovups	xmm0, xmmword ptr [rsi]
	vmovaps	xmmword ptr [rbp - 112], xmm0
	mov	rax, qword ptr [rbp - 64]
	mov	qword ptr [rbp - 96], rax
	mov	rax, qword ptr [rbp - 56]
	mov	qword ptr [rbp - 88], rax
	vmovups	xmm0, xmmword ptr [rbp - 112]
	vmovups	xmmword ptr [rbp - 272], xmm0
	mov	rax, qword ptr [rbp - 96]
	mov	qword ptr [rbp - 256], rax
	mov	rax, qword ptr [rbp - 88]
	mov	qword ptr [rbp - 248], rax
	mov	word ptr [rbp - 240], dx
	lea	rax, [rbp - 352]
	mov	qword ptr [rbp - 232], rax
	vmovups	ymm0, ymmword ptr [rip + .L__unnamed_3]
	vmovups	ymmword ptr [rbp - 224], ymm0
	mov	qword ptr [rbp - 1832], rcx
	vmovups	ymm0, ymmword ptr [rip + .L__unnamed_3+32]
	vmovups	ymmword ptr [rbp - 192], ymm0
	lea	rsi, [rbp - 408]
	lea	rax, [rip + Io.async__anon_6992.TypeErased.start]
	mov	qword ptr [rsp + 8], rax
	mov	dword ptr [rsp], 4
	lea	rbx, [rbp - 272]
	mov	r9d, 112
	mov	qword ptr [rbp - 80], rdi
	xor	edx, edx
	xor	ecx, ecx
	mov	r8, rbx
	vzeroupper
	call	Io.Threaded.async
	mov	r10, rbx
	mov	qword ptr [rbp - 72], rax
	mov	bx, 73
	mov	r12d, 1
.LBB8_1:
	mov	rdi, qword ptr [rbp - 64]
	mov	rcx, qword ptr [rbp - 56]
	mov	rax, qword ptr [rbp - 352]
	.p2align	4
.LBB8_2:
	mov	rdx, rax
	and	rdx, -2
	lock		cmpxchg	qword ptr [rbp - 352], rdx
	jne	.LBB8_2
	test	al, 1
	je	.LBB8_243
.LBB8_4:
	mov	dword ptr [rsp], 0
	mov	r8d, 44
	mov	r9d, 44
	lea	rdi, [rbp - 416]
	lea	rsi, [rbp - 352]
	lea	rdx, [rbp - 64]
	mov	r14, r10
	mov	rcx, r10
	vzeroupper
	call	Io.TypeErasedQueue.getLocked
	mov	rdi, qword ptr [rbp - 64]
	mov	rcx, qword ptr [rbp - 56]
	xor	eax, eax
	lock		cmpxchg	qword ptr [rbp - 352], r12
	jne	.LBB8_20
	movzx	r15d, word ptr [rbp - 408]
	test	r15w, r15w
	mov	r10, r14
	jne	.LBB8_245
.LBB8_6:
	movzx	r15d, word ptr [rbp - 272]
	movzx	r13d, word ptr [rbp - 236]
	vmovups	ymm0, ymmword ptr [r10 + 2]
	vmovups	ymmword ptr [rbp - 400], ymm0
	movzx	eax, word ptr [r10 + 34]
	mov	word ptr [rbp - 368], ax
	test	byte ptr [rbp - 232], 1
	jne	.LBB8_119
	movzx	eax, r13w
	mov	ebx, r13d
	cmp	eax, 60
	ja	.LBB8_1
	mov	eax, eax
	movabs	rcx, 1152922329242665984
	bt	rcx, rax
	jb	.LBB8_21
	test	rax, rax
	je	.LBB8_141
	mov	ebx, r13d
	cmp	rax, 17
	jne	.LBB8_1
	jmp	.LBB8_11
.LBB8_243:
	mov	rsi, rax
	lea	rdx, [rbp - 352]
	mov	r14, r10
	vzeroupper
	call	qword ptr [rcx + 80]
	mov	r10, r14
	test	ax, ax
	jne	.LBB8_244
	jmp	.LBB8_4
.LBB8_20:
	mov	rsi, rax
	lea	rdx, [rbp - 352]
	call	qword ptr [rcx + 96]
	movzx	r15d, word ptr [rbp - 408]
	test	r15w, r15w
	mov	r10, r14
	je	.LBB8_6
	jmp	.LBB8_245
.LBB8_21:
	mov	rsi, qword ptr [rbp - 72]
	test	rsi, rsi
	je	.LBB8_23
	mov	rdi, qword ptr [rbp - 64]
	mov	rax, qword ptr [rbp - 56]
	lea	rdx, [rbp - 64]
	xor	ecx, ecx
	xor	r8d, r8d
	vzeroupper
	call	qword ptr [rax + 24]
	mov	qword ptr [rbp - 72], 0
	.p2align	4
.LBB8_23:
	mov	rdi, qword ptr [rbp - 64]
	mov	rcx, qword ptr [rbp - 56]
	mov	rax, qword ptr [rbp - 352]
	.p2align	4
.LBB8_24:
	mov	rdx, rax
	and	rdx, -2
	lock		cmpxchg	qword ptr [rbp - 352], rdx
	jne	.LBB8_24
	test	al, 1
	je	.LBB8_30
.LBB8_26:
	mov	dword ptr [rsp], 1
	lea	rdi, [rbp - 416]
	lea	rsi, [rbp - 352]
	lea	rdx, [rbp - 64]
	lea	rcx, [rbp - 272]
	mov	r8d, 44
	mov	r9d, 44
	vzeroupper
	call	Io.TypeErasedQueue.getLocked
	mov	rdi, qword ptr [rbp - 64]
	mov	rcx, qword ptr [rbp - 56]
	mov	edx, 1
	xor	eax, eax
	lock		cmpxchg	qword ptr [rbp - 352], rdx
	jne	.LBB8_31
	test	byte ptr [rbp - 232], 1
	jne	.LBB8_32
.LBB8_28:
	cmp	word ptr [rbp - 236], 0
	jne	.LBB8_23
	mov	esi, dword ptr [rbp - 272]
	mov	rdi, qword ptr [rbp - 64]
	mov	rax, qword ptr [rbp - 56]
	call	qword ptr [rax + 376]
	jmp	.LBB8_23
.LBB8_30:
	lea	rdx, [rbp - 352]
	mov	rsi, rax
	vzeroupper
	call	qword ptr [rcx + 88]
	jmp	.LBB8_26
.LBB8_31:
	lea	rdx, [rbp - 352]
	mov	rsi, rax
	call	qword ptr [rcx + 96]
	test	byte ptr [rbp - 232], 1
	je	.LBB8_28
.LBB8_32:
	mov	esi, r13d
	mov	r13, qword ptr [rbp - 48]
	mov	r10, r14
.LBB8_33:
	test	si, si
	jne	.LBB8_573
.LBB8_34:
	mov	word ptr [r13 + 512], r15w
	vmovups	ymm0, ymmword ptr [rbp - 1872]
	vmovups	ymmword ptr [r13 + 514], ymm0
	movzx	eax, word ptr [rbp - 1840]
	mov	word ptr [r13 + 546], ax
	lea	rcx, [r13 + 548]
	mov	rdi, qword ptr [rbp - 80]
	mov	qword ptr [r13 + 232], rdi
	lea	r8, [rip + __anon_6891]
	mov	qword ptr [r13 + 240], r8
	lea	rax, [r13 + 248]
	lea	rdx, [rip + __anon_10091]
	mov	qword ptr [r13 + 248], rdx
	mov	qword ptr [r13 + 256], rcx
	mov	qword ptr [r13 + 264], 1024
	vxorps	xmm0, xmm0, xmm0
	vmovups	xmmword ptr [r13 + 272], xmm0
	movzx	ecx, word ptr [r13 + 512]
	mov	word ptr [r13 + 288], cx
	vmovups	xmm0, xmmword ptr [r13 + 514]
	vmovups	xmmword ptr [r13 + 290], xmm0
	mov	rcx, qword ptr [r13 + 530]
	mov	qword ptr [r13 + 306], rcx
	mov	ecx, dword ptr [r13 + 538]
	mov	dword ptr [r13 + 314], ecx
	movzx	ecx, word ptr [r13 + 542]
	mov	word ptr [r13 + 318], cx
	mov	ecx, dword ptr [r13 + 544]
	mov	dword ptr [r13 + 320], ecx
	mov	word ptr [r13 + 324], 0
	lea	rcx, [r13 + 1572]
	mov	qword ptr [r13 + 328], rdi
	mov	qword ptr [r13 + 336], r8
	lea	rdx, [r13 + 344]
	lea	rsi, [rip + __anon_10097]
	mov	qword ptr [r13 + 344], rsi
	mov	qword ptr [r13 + 352], rcx
	mov	qword ptr [r13 + 360], 1024
	mov	qword ptr [r13 + 368], 0
	mov	ecx, dword ptr [r13 + 544]
	mov	dword ptr [r13 + 408], ecx
	vmovups	ymm0, ymmword ptr [r13 + 512]
	vmovups	ymmword ptr [r13 + 376], ymm0
	mov	word ptr [r13 + 412], 0
	mov	rcx, qword ptr [rbp - 1832]
	mov	r14, qword ptr [rcx]
	mov	r12, qword ptr [rcx + 8]
	mov	rbx, qword ptr [rcx + 16]
	mov	r15, qword ptr [rcx + 24]
	mov	qword ptr [rbp - 1824], rdi
	mov	qword ptr [rbp - 1816], r8
	mov	qword ptr [rbp - 1800], rax
	mov	qword ptr [rbp - 1808], rdx
	lea	rdx, [rbp - 1792]
	mov	qword ptr [rbp - 1792], 1
	mov	qword ptr [rbp - 1784], 1
	mov	qword ptr [rbp - 1776], 0
	mov	byte ptr [rbp - 1768], 0
	mov	eax, 1
	test	r14, r14
	je	.LBB8_58
	.p2align	4
.LBB8_35:
	mov	rcx, rax
	and	rcx, -2
	lock		cmpxchg	qword ptr [rbp - 1792], rcx
	jne	.LBB8_35
	test	al, 1
	je	.LBB8_266
.LBB8_37:
	cmp	byte ptr [rbp - 1768], 1
	je	.LBB8_61
	mov	rax, qword ptr [rbp - 1776]
	test	rax, rax
	sete	byte ptr [rbp - 256]
	vxorps	xmm0, xmm0, xmm0
	vmovaps	xmmword ptr [rbp - 272], xmm0
	je	.LBB8_40
	mov	qword ptr [rax + 8], r10
.LBB8_40:
	mov	qword ptr [rbp - 1776], r10
	mov	r13, qword ptr [rbp - 1808]
	mov	esi, 3
	mov	rdi, r13
	vzeroupper
	call	Io.Writer.print__anon_4619
	test	ax, ax
	jne	.LBB8_257
	lea	rsi, [rip + .L__unnamed_4]
	mov	rdi, r13
	call	serializer.CommandSerializer.serializeArgument__anon_4626
	test	ax, ax
	jne	.LBB8_257
	mov	rdi, r13
	mov	rsi, r14
	mov	rdx, r12
	call	serializer.CommandSerializer.serializeArgument__anon_4640
	test	ax, ax
	jne	.LBB8_257
	mov	rdi, r13
	mov	rsi, rbx
	mov	rdx, r15
	call	serializer.CommandSerializer.serializeArgument__anon_4640
	test	ax, ax
	jne	.LBB8_257
	mov	rdi, qword ptr [rbp - 1808]
	mov	rax, qword ptr [rdi]
	call	qword ptr [rax + 16]
	test	ax, ax
	mov	r13, qword ptr [rbp - 48]
	lea	rbx, [rbp - 1784]
	jne	.LBB8_277
	mov	rdi, qword ptr [rbp - 1824]
	mov	rcx, qword ptr [rbp - 1816]
	mov	edx, 1
	xor	eax, eax
	lock		cmpxchg	qword ptr [rbp - 1792], rdx
	jne	.LBB8_289
.LBB8_46:
	mov	rdi, qword ptr [rbp - 1824]
	mov	rcx, qword ptr [rbp - 1816]
	mov	rax, qword ptr [rbp - 1784]
	.p2align	4
.LBB8_47:
	mov	rdx, rax
	and	rdx, -2
	lock		cmpxchg	qword ptr [rbp - 1784], rdx
	jne	.LBB8_47
	test	al, 1
	jne	.LBB8_65
	mov	rsi, rax
	mov	rdx, rbx
	call	qword ptr [rcx + 80]
	test	ax, ax
	je	.LBB8_65
	mov	esi, eax
	mov	rdi, qword ptr [rbp - 1824]
	mov	rcx, qword ptr [rbp - 1816]
	mov	rax, qword ptr [rbp - 1784]
.LBB8_51:
	mov	rdx, rax
	and	rdx, -2
	lock		cmpxchg	qword ptr [rbp - 1784], rdx
	jne	.LBB8_51
	mov	r15d, esi
	test	al, 1
	je	.LBB8_582
	test	byte ptr [rbp - 256], 3
	jne	.LBB8_56
.LBB8_54:
	lea	r14, [rbp - 272]
.LBB8_55:
	mov	rdi, qword ptr [rbp - 1824]
	mov	rax, qword ptr [rbp - 1816]
	mov	rsi, r14
	mov	rdx, rbx
	call	qword ptr [rax + 112]
	test	byte ptr [rbp - 256], 3
	je	.LBB8_55
.LBB8_56:
	mov	rdi, qword ptr [rbp - 1824]
	mov	rcx, qword ptr [rbp - 1816]
	mov	rax, qword ptr [rbp - 1792]
.LBB8_57:
	mov	rdx, rax
	and	rdx, -2
	lock		cmpxchg	qword ptr [rbp - 1792], rdx
	jne	.LBB8_57
	jmp	.LBB8_286
	.p2align	4
.LBB8_58:
	mov	rcx, rax
	and	rcx, -2
	lock		cmpxchg	qword ptr [rbp - 1792], rcx
	jne	.LBB8_58
	test	al, 1
	je	.LBB8_267
.LBB8_60:
	cmp	byte ptr [rbp - 1768], 1
	jne	.LBB8_78
.LBB8_61:
	mov	rdi, qword ptr [rbp - 1824]
	mov	rcx, qword ptr [rbp - 1816]
	mov	esi, 1
	xor	eax, eax
	lock		cmpxchg	qword ptr [rbp - 1792], rsi
	mov	si, 80
	je	.LBB8_573
	mov	rsi, rax
.LBB8_63:
	vzeroupper
	call	qword ptr [rcx + 96]
	mov	si, 80
	jmp	.LBB8_573
	.p2align	4
.LBB8_64:
	mov	rdi, qword ptr [rbp - 1824]
	mov	rax, qword ptr [rbp - 1816]
	lea	rsi, [rbp - 272]
	mov	rdx, rbx
	call	qword ptr [rax + 112]
.LBB8_65:
	movzx	eax, byte ptr [rbp - 256]
	and	eax, 3
	je	.LBB8_64
	cmp	eax, 2
	jne	.LBB8_123
	mov	rdi, qword ptr [rbp - 1824]
	mov	rcx, qword ptr [rbp - 1816]
	mov	edx, 1
	xor	eax, eax
	lock		cmpxchg	qword ptr [rbp - 1784], rdx
	jne	.LBB8_310
.LBB8_68:
	mov	rdi, qword ptr [rbp - 1824]
	mov	rcx, qword ptr [rbp - 1816]
	mov	rax, qword ptr [rbp - 1784]
	.p2align	4
.LBB8_69:
	mov	rdx, rax
	and	rdx, -2
	lock		cmpxchg	qword ptr [rbp - 1784], rdx
	jne	.LBB8_69
	test	al, 1
	je	.LBB8_311
	test	byte ptr [rbp - 256], 3
	jne	.LBB8_74
.LBB8_72:
	lea	r14, [rbp - 272]
	.p2align	4
.LBB8_73:
	mov	rdi, qword ptr [rbp - 1824]
	mov	rax, qword ptr [rbp - 1816]
	mov	rsi, r14
	mov	rdx, rbx
	call	qword ptr [rax + 112]
	test	byte ptr [rbp - 256], 3
	je	.LBB8_73
.LBB8_74:
	mov	rdi, qword ptr [rbp - 1824]
	mov	rcx, qword ptr [rbp - 1816]
	mov	rax, qword ptr [rbp - 1792]
	.p2align	4
.LBB8_75:
	mov	rdx, rax
	and	rdx, -2
	lock		cmpxchg	qword ptr [rbp - 1792], rdx
	jne	.LBB8_75
	test	al, 1
	je	.LBB8_77
.LBB8_113:
	mov	byte ptr [rbp - 1768], 1
	mov	rsi, qword ptr [rbp - 264]
	test	rsi, rsi
	je	.LBB8_224
.LBB8_114:
	mov	byte ptr [rsi + 16], 2
	mov	rdi, qword ptr [rbp - 1824]
	mov	rax, qword ptr [rbp - 1816]
	xor	edx, edx
	call	qword ptr [rax + 120]
	jmp	.LBB8_115
.LBB8_78:
	mov	rax, qword ptr [rbp - 1776]
	test	rax, rax
	sete	byte ptr [rbp - 256]
	vxorps	xmm0, xmm0, xmm0
	vmovaps	xmmword ptr [rbp - 272], xmm0
	je	.LBB8_80
	mov	qword ptr [rax + 8], r10
.LBB8_80:
	mov	qword ptr [rbp - 1776], r10
	mov	r14, qword ptr [rbp - 1808]
	mov	esi, 2
	mov	rdi, r14
	vzeroupper
	call	Io.Writer.print__anon_4619
	test	ax, ax
	jne	.LBB8_268
	lea	rsi, [rip + .L__unnamed_4]
	mov	rdi, r14
	call	serializer.CommandSerializer.serializeArgument__anon_4626
	test	ax, ax
	jne	.LBB8_268
	mov	rdi, r14
	mov	rsi, rbx
	mov	rdx, r15
	call	serializer.CommandSerializer.serializeArgument__anon_4640
	test	ax, ax
	jne	.LBB8_268
	mov	rdi, qword ptr [rbp - 1808]
	mov	rax, qword ptr [rdi]
	call	qword ptr [rax + 16]
	test	ax, ax
	lea	rbx, [rbp - 1784]
	jne	.LBB8_291
	mov	rdi, qword ptr [rbp - 1824]
	mov	rcx, qword ptr [rbp - 1816]
	mov	edx, 1
	xor	eax, eax
	lock		cmpxchg	qword ptr [rbp - 1792], rdx
	jne	.LBB8_307
.LBB8_85:
	mov	rdi, qword ptr [rbp - 1824]
	mov	rcx, qword ptr [rbp - 1816]
	mov	rax, qword ptr [rbp - 1784]
	.p2align	4
.LBB8_86:
	mov	rdx, rax
	and	rdx, -2
	lock		cmpxchg	qword ptr [rbp - 1784], rdx
	jne	.LBB8_86
	test	al, 1
	jne	.LBB8_101
	mov	rsi, rax
	mov	rdx, rbx
	call	qword ptr [rcx + 80]
	test	ax, ax
	je	.LBB8_101
	mov	r15d, eax
	mov	rdi, qword ptr [rbp - 1824]
	mov	rcx, qword ptr [rbp - 1816]
	mov	rax, qword ptr [rbp - 1784]
.LBB8_90:
	mov	rdx, rax
	and	rdx, -2
	lock		cmpxchg	qword ptr [rbp - 1784], rdx
	jne	.LBB8_90
	test	al, 1
	je	.LBB8_585
	test	byte ptr [rbp - 256], 3
	lea	rbx, [rbp - 1784]
	jne	.LBB8_95
.LBB8_93:
	lea	r14, [rbp - 272]
.LBB8_94:
	mov	rdi, qword ptr [rbp - 1824]
	mov	rax, qword ptr [rbp - 1816]
	mov	rsi, r14
	mov	rdx, rbx
	call	qword ptr [rax + 112]
	test	byte ptr [rbp - 256], 3
	je	.LBB8_94
.LBB8_95:
	mov	rdi, qword ptr [rbp - 1824]
	mov	rcx, qword ptr [rbp - 1816]
	mov	rax, qword ptr [rbp - 1792]
.LBB8_96:
	mov	rdx, rax
	and	rdx, -2
	lock		cmpxchg	qword ptr [rbp - 1792], rdx
	jne	.LBB8_96
	test	al, 1
	jne	.LBB8_98
.LBB8_301:
	mov	rsi, rax
	lea	rdx, [rbp - 1792]
	call	qword ptr [rcx + 88]
	mov	byte ptr [rbp - 1768], 1
	mov	rsi, qword ptr [rbp - 264]
	test	rsi, rsi
	jne	.LBB8_99
	jmp	.LBB8_302
	.p2align	4
.LBB8_100:
	mov	rdi, qword ptr [rbp - 1824]
	mov	rax, qword ptr [rbp - 1816]
	lea	rsi, [rbp - 272]
	mov	rdx, rbx
	call	qword ptr [rax + 112]
.LBB8_101:
	movzx	eax, byte ptr [rbp - 256]
	and	eax, 3
	je	.LBB8_100
	cmp	eax, 2
	jne	.LBB8_153
	mov	rdi, qword ptr [rbp - 1824]
	mov	rcx, qword ptr [rbp - 1816]
	mov	edx, 1
	xor	eax, eax
	lock		cmpxchg	qword ptr [rbp - 1784], rdx
	jne	.LBB8_316
.LBB8_104:
	mov	rdi, qword ptr [rbp - 1824]
	mov	rcx, qword ptr [rbp - 1816]
	mov	rax, qword ptr [rbp - 1784]
	.p2align	4
.LBB8_105:
	mov	rdx, rax
	and	rdx, -2
	lock		cmpxchg	qword ptr [rbp - 1784], rdx
	jne	.LBB8_105
	test	al, 1
	je	.LBB8_317
	test	byte ptr [rbp - 256], 3
	jne	.LBB8_110
.LBB8_108:
	lea	r14, [rbp - 272]
	.p2align	4
.LBB8_109:
	mov	rdi, qword ptr [rbp - 1824]
	mov	rax, qword ptr [rbp - 1816]
	mov	rsi, r14
	mov	rdx, rbx
	call	qword ptr [rax + 112]
	test	byte ptr [rbp - 256], 3
	je	.LBB8_109
.LBB8_110:
	mov	rdi, qword ptr [rbp - 1824]
	mov	rcx, qword ptr [rbp - 1816]
	mov	rax, qword ptr [rbp - 1792]
	.p2align	4
.LBB8_111:
	mov	rdx, rax
	and	rdx, -2
	lock		cmpxchg	qword ptr [rbp - 1792], rdx
	jne	.LBB8_111
	test	al, 1
	jne	.LBB8_113
.LBB8_77:
	mov	rsi, rax
	lea	rdx, [rbp - 1792]
	call	qword ptr [rcx + 88]
	mov	byte ptr [rbp - 1768], 1
	mov	rsi, qword ptr [rbp - 264]
	test	rsi, rsi
	jne	.LBB8_114
	jmp	.LBB8_224
.LBB8_119:
	mov	rsi, qword ptr [rbp - 72]
	test	r15w, r15w
	jne	.LBB8_308
	test	rsi, rsi
	mov	r13, qword ptr [rbp - 48]
	je	.LBB8_122
	mov	rdi, qword ptr [rbp - 64]
	mov	rax, qword ptr [rbp - 56]
	lea	rdx, [rbp - 64]
	xor	ecx, ecx
	xor	r8d, r8d
	vzeroupper
	call	qword ptr [rax + 24]
	mov	r10, r14
.LBB8_122:
	mov	esi, ebx
	jmp	.LBB8_33
.LBB8_123:
	mov	rsi, qword ptr [rbp - 1800]
	mov	rax, qword ptr [rsi + 24]
	cmp	rax, qword ptr [rsi + 32]
	jae	.LBB8_312
.LBB8_124:
	mov	rcx, qword ptr [rsi + 8]
	movzx	edi, byte ptr [rcx + rax]
	inc	rax
	mov	qword ptr [rsi + 24], rax
	call	parser.void.VoidParser.discardOne
	test	ax, ax
	je	.LBB8_171
.LBB8_125:
	mov	esi, eax
	mov	rdi, qword ptr [rbp - 1824]
	mov	rcx, qword ptr [rbp - 1816]
	mov	edx, 1
	xor	eax, eax
	lock		cmpxchg	qword ptr [rbp - 1784], rdx
	mov	r15d, esi
	jne	.LBB8_314
.LBB8_126:
	mov	rdi, qword ptr [rbp - 1824]
	mov	rcx, qword ptr [rbp - 1816]
	mov	rax, qword ptr [rbp - 1784]
	.p2align	4
.LBB8_127:
	mov	rdx, rax
	and	rdx, -2
	lock		cmpxchg	qword ptr [rbp - 1784], rdx
	jne	.LBB8_127
	test	al, 1
	je	.LBB8_315
	test	byte ptr [rbp - 256], 3
	jne	.LBB8_132
.LBB8_130:
	lea	r14, [rbp - 272]
	.p2align	4
.LBB8_131:
	mov	rdi, qword ptr [rbp - 1824]
	mov	rax, qword ptr [rbp - 1816]
	mov	rsi, r14
	mov	rdx, rbx
	call	qword ptr [rax + 112]
	test	byte ptr [rbp - 256], 3
	je	.LBB8_131
.LBB8_132:
	mov	rdi, qword ptr [rbp - 1824]
	mov	rcx, qword ptr [rbp - 1816]
	mov	rax, qword ptr [rbp - 1792]
	.p2align	4
.LBB8_133:
	mov	rdx, rax
	and	rdx, -2
	lock		cmpxchg	qword ptr [rbp - 1792], rdx
	jne	.LBB8_133
	jmp	.LBB8_134
.LBB8_11:
	mov	rsi, qword ptr [rbp - 72]
	test	rsi, rsi
	je	.LBB8_13
	mov	rdi, qword ptr [rbp - 64]
	mov	rax, qword ptr [rbp - 56]
	lea	rdx, [rbp - 64]
	xor	ecx, ecx
	xor	r8d, r8d
	vzeroupper
	call	qword ptr [rax + 24]
	mov	qword ptr [rbp - 72], 0
	.p2align	4
.LBB8_13:
	mov	rdi, qword ptr [rbp - 64]
	mov	rcx, qword ptr [rbp - 56]
	mov	rax, qword ptr [rbp - 352]
	.p2align	4
.LBB8_14:
	mov	rdx, rax
	and	rdx, -2
	lock		cmpxchg	qword ptr [rbp - 352], rdx
	jne	.LBB8_14
	test	al, 1
	je	.LBB8_137
.LBB8_16:
	mov	dword ptr [rsp], 1
	lea	rdi, [rbp - 416]
	lea	rsi, [rbp - 352]
	lea	rdx, [rbp - 64]
	lea	rcx, [rbp - 272]
	mov	r8d, 44
	mov	r9d, 44
	vzeroupper
	call	Io.TypeErasedQueue.getLocked
	mov	rdi, qword ptr [rbp - 64]
	mov	rcx, qword ptr [rbp - 56]
	mov	edx, 1
	xor	eax, eax
	lock		cmpxchg	qword ptr [rbp - 352], rdx
	jne	.LBB8_138
	test	byte ptr [rbp - 232], 1
	jne	.LBB8_139
.LBB8_18:
	cmp	word ptr [rbp - 236], 0
	jne	.LBB8_13
	mov	esi, dword ptr [rbp - 272]
	mov	rdi, qword ptr [rbp - 64]
	mov	rax, qword ptr [rbp - 56]
	call	qword ptr [rax + 376]
	jmp	.LBB8_13
.LBB8_137:
	lea	rdx, [rbp - 352]
	mov	rsi, rax
	vzeroupper
	call	qword ptr [rcx + 88]
	jmp	.LBB8_16
.LBB8_138:
	lea	rdx, [rbp - 352]
	mov	rsi, rax
	call	qword ptr [rcx + 96]
	test	byte ptr [rbp - 232], 1
	je	.LBB8_18
.LBB8_139:
	mov	r15w, 2
.LBB8_140:
	mov	esi, r15d
	jmp	.LBB8_573
.LBB8_141:
	movzx	eax, word ptr [rbp - 368]
	mov	word ptr [rbp - 128], ax
	vmovups	ymm0, ymmword ptr [rbp - 400]
	vmovups	ymmword ptr [rbp - 160], ymm0
	mov	rsi, qword ptr [rbp - 72]
	test	rsi, rsi
	mov	r13, qword ptr [rbp - 48]
	je	.LBB8_143
	mov	rdi, qword ptr [rbp - 64]
	mov	rax, qword ptr [rbp - 56]
	lea	rdx, [rbp - 64]
	xor	ecx, ecx
	xor	r8d, r8d
	vzeroupper
	call	qword ptr [rax + 24]
	mov	qword ptr [rbp - 72], 0
	.p2align	4
.LBB8_143:
	mov	rdi, qword ptr [rbp - 64]
	mov	rcx, qword ptr [rbp - 56]
	mov	rax, qword ptr [rbp - 352]
	.p2align	4
.LBB8_144:
	mov	rdx, rax
	and	rdx, -2
	lock		cmpxchg	qword ptr [rbp - 352], rdx
	jne	.LBB8_144
	test	al, 1
	je	.LBB8_150
.LBB8_146:
	mov	dword ptr [rsp], 1
	lea	rdi, [rbp - 416]
	lea	rsi, [rbp - 352]
	lea	rdx, [rbp - 64]
	lea	rcx, [rbp - 272]
	mov	r8d, 44
	mov	r9d, 44
	vzeroupper
	call	Io.TypeErasedQueue.getLocked
	mov	rdi, qword ptr [rbp - 64]
	mov	rcx, qword ptr [rbp - 56]
	mov	edx, 1
	xor	eax, eax
	lock		cmpxchg	qword ptr [rbp - 352], rdx
	jne	.LBB8_151
	test	byte ptr [rbp - 232], 1
	jne	.LBB8_152
.LBB8_148:
	cmp	word ptr [rbp - 236], 0
	jne	.LBB8_143
	mov	esi, dword ptr [rbp - 272]
	mov	rdi, qword ptr [rbp - 64]
	mov	rax, qword ptr [rbp - 56]
	call	qword ptr [rax + 376]
	jmp	.LBB8_143
.LBB8_150:
	lea	rdx, [rbp - 352]
	mov	rsi, rax
	vzeroupper
	call	qword ptr [rcx + 88]
	jmp	.LBB8_146
.LBB8_151:
	lea	rdx, [rbp - 352]
	mov	rsi, rax
	call	qword ptr [rcx + 96]
	test	byte ptr [rbp - 232], 1
	je	.LBB8_148
.LBB8_152:
	movzx	eax, word ptr [rbp - 128]
	mov	word ptr [rbp - 1840], ax
	vmovups	ymm0, ymmword ptr [rbp - 160]
	vmovups	ymmword ptr [rbp - 1872], ymm0
	mov	r10, r14
	jmp	.LBB8_34
.LBB8_153:
	mov	rsi, qword ptr [rbp - 1800]
	mov	rax, qword ptr [rsi + 24]
	cmp	rax, qword ptr [rsi + 32]
	jae	.LBB8_318
.LBB8_154:
	mov	rcx, qword ptr [rsi + 8]
	movzx	edi, byte ptr [rcx + rax]
	inc	rax
	mov	qword ptr [rsi + 24], rax
	call	parser.void.VoidParser.discardOne
	test	ax, ax
	je	.LBB8_176
	mov	esi, eax
.LBB8_156:
	mov	rdi, qword ptr [rbp - 1824]
	mov	rcx, qword ptr [rbp - 1816]
	mov	edx, 1
	xor	eax, eax
	lock		cmpxchg	qword ptr [rbp - 1784], rdx
	mov	r15d, esi
	jne	.LBB8_334
.LBB8_157:
	mov	rdi, qword ptr [rbp - 1824]
	mov	rcx, qword ptr [rbp - 1816]
	mov	rax, qword ptr [rbp - 1784]
	.p2align	4
.LBB8_158:
	mov	rdx, rax
	and	rdx, -2
	lock		cmpxchg	qword ptr [rbp - 1784], rdx
	jne	.LBB8_158
	test	al, 1
	je	.LBB8_335
	test	byte ptr [rbp - 256], 3
	jne	.LBB8_163
.LBB8_161:
	lea	r14, [rbp - 272]
	.p2align	4
.LBB8_162:
	mov	rdi, qword ptr [rbp - 1824]
	mov	rax, qword ptr [rbp - 1816]
	mov	rsi, r14
	mov	rdx, rbx
	call	qword ptr [rax + 112]
	test	byte ptr [rbp - 256], 3
	je	.LBB8_162
.LBB8_163:
	mov	rdi, qword ptr [rbp - 1824]
	mov	rcx, qword ptr [rbp - 1816]
	mov	rax, qword ptr [rbp - 1792]
	.p2align	4
.LBB8_164:
	mov	rdx, rax
	and	rdx, -2
	lock		cmpxchg	qword ptr [rbp - 1792], rdx
	jne	.LBB8_164
.LBB8_134:
	test	al, 1
	je	.LBB8_135
	mov	byte ptr [rbp - 1768], 1
	mov	rsi, qword ptr [rbp - 264]
	test	rsi, rsi
	je	.LBB8_136
.LBB8_166:
	mov	byte ptr [rsi + 16], 2
	mov	rdi, qword ptr [rbp - 1824]
	mov	rax, qword ptr [rbp - 1816]
	xor	edx, edx
	call	qword ptr [rax + 120]
	jmp	.LBB8_167
.LBB8_171:
	mov	rdi, qword ptr [rbp - 1824]
	mov	rcx, qword ptr [rbp - 1816]
	mov	rax, qword ptr [rbp - 1792]
	.p2align	4
.LBB8_172:
	mov	rdx, rax
	and	rdx, -2
	lock		cmpxchg	qword ptr [rbp - 1792], rdx
	jne	.LBB8_172
	test	al, 1
	je	.LBB8_347
	mov	rsi, qword ptr [rbp - 264]
	test	rsi, rsi
	je	.LBB8_175
.LBB8_180:
	movzx	eax, byte ptr [rbp - 1768]
	inc	al
	mov	byte ptr [rsi + 16], al
	mov	rdi, qword ptr [rbp - 1824]
	mov	rax, qword ptr [rbp - 1816]
	xor	edx, edx
	call	qword ptr [rax + 120]
	jmp	.LBB8_181
.LBB8_176:
	mov	rdi, qword ptr [rbp - 1824]
	mov	rcx, qword ptr [rbp - 1816]
	mov	rax, qword ptr [rbp - 1792]
	.p2align	4
.LBB8_177:
	mov	rdx, rax
	and	rdx, -2
	lock		cmpxchg	qword ptr [rbp - 1792], rdx
	jne	.LBB8_177
	test	al, 1
	je	.LBB8_347
	mov	rsi, qword ptr [rbp - 264]
	test	rsi, rsi
	jne	.LBB8_180
.LBB8_175:
	mov	qword ptr [rbp - 1776], 0
.LBB8_181:
	mov	rdi, qword ptr [rbp - 1824]
	mov	rcx, qword ptr [rbp - 1816]
	mov	r14d, 1
	xor	eax, eax
	lock		cmpxchg	qword ptr [rbp - 1784], r14
	jne	.LBB8_320
.LBB8_182:
	mov	rdi, qword ptr [rbp - 1824]
	mov	rcx, qword ptr [rbp - 1816]
	xor	eax, eax
	lock		cmpxchg	qword ptr [rbp - 1792], r14
	jne	.LBB8_321
.LBB8_183:
	mov	rdi, qword ptr [rbp - 1824]
	mov	rcx, qword ptr [rbp - 1816]
	mov	rax, qword ptr [rbp - 1792]
	.p2align	4
.LBB8_184:
	mov	rdx, rax
	and	rdx, -2
	lock		cmpxchg	qword ptr [rbp - 1792], rdx
	jne	.LBB8_184
	test	al, 1
	je	.LBB8_322
.LBB8_186:
	cmp	byte ptr [rbp - 1768], 1
	jne	.LBB8_189
	mov	rdi, qword ptr [rbp - 1824]
	mov	rcx, qword ptr [rbp - 1816]
	mov	edx, 1
	xor	eax, eax
	lock		cmpxchg	qword ptr [rbp - 1792], rdx
	mov	si, 80
	je	.LBB8_573
	mov	rsi, rax
	lea	rdx, [rbp - 1792]
	jmp	.LBB8_63
.LBB8_189:
	mov	rax, qword ptr [rbp - 1776]
	test	rax, rax
	sete	byte ptr [rbp - 96]
	vxorps	xmm0, xmm0, xmm0
	vmovaps	xmmword ptr [rbp - 112], xmm0
	je	.LBB8_191
	lea	rcx, [rbp - 112]
	mov	qword ptr [rax + 8], rcx
.LBB8_191:
	lea	rax, [rbp - 112]
	mov	qword ptr [rbp - 1776], rax
	mov	r14, qword ptr [rbp - 1808]
	mov	esi, 2
	mov	rdi, r14
	call	Io.Writer.print__anon_4619
	test	ax, ax
	jne	.LBB8_323
	lea	rsi, [rip + .L__unnamed_5]
	mov	rdi, r14
	call	serializer.CommandSerializer.serializeArgument__anon_4810
	test	ax, ax
	jne	.LBB8_323
	mov	rdi, r14
	mov	esi, 51
	call	serializer.CommandSerializer.serializeArgument__anon_4820
	test	ax, ax
	jne	.LBB8_323
	mov	rdi, qword ptr [rbp - 1808]
	mov	rax, qword ptr [rdi]
	call	qword ptr [rax + 16]
	test	ax, ax
	jne	.LBB8_336
	mov	rdi, qword ptr [rbp - 1824]
	mov	rcx, qword ptr [rbp - 1816]
	mov	edx, 1
	xor	eax, eax
	lock		cmpxchg	qword ptr [rbp - 1792], rdx
	jne	.LBB8_346
.LBB8_196:
	mov	rdi, qword ptr [rbp - 1824]
	mov	rcx, qword ptr [rbp - 1816]
	mov	rax, qword ptr [rbp - 1784]
	.p2align	4
.LBB8_197:
	mov	rdx, rax
	and	rdx, -2
	lock		cmpxchg	qword ptr [rbp - 1784], rdx
	jne	.LBB8_197
	test	al, 1
	jne	.LBB8_211
	mov	rsi, rax
	mov	rdx, rbx
	call	qword ptr [rcx + 80]
	test	ax, ax
	je	.LBB8_211
	mov	r15d, eax
	mov	rdi, qword ptr [rbp - 1824]
	mov	rcx, qword ptr [rbp - 1816]
	mov	rax, qword ptr [rbp - 1784]
.LBB8_201:
	mov	rdx, rax
	and	rdx, -2
	lock		cmpxchg	qword ptr [rbp - 1784], rdx
	jne	.LBB8_201
	test	al, 1
	je	.LBB8_595
	test	byte ptr [rbp - 96], 3
	lea	rbx, [rbp - 1784]
	jne	.LBB8_206
.LBB8_204:
	lea	r14, [rbp - 112]
.LBB8_205:
	mov	rdi, qword ptr [rbp - 1824]
	mov	rax, qword ptr [rbp - 1816]
	mov	rsi, r14
	mov	rdx, rbx
	call	qword ptr [rax + 112]
	test	byte ptr [rbp - 96], 3
	je	.LBB8_205
.LBB8_206:
	mov	rdi, qword ptr [rbp - 1824]
	mov	rcx, qword ptr [rbp - 1816]
	mov	rax, qword ptr [rbp - 1792]
.LBB8_207:
	mov	rdx, rax
	and	rdx, -2
	lock		cmpxchg	qword ptr [rbp - 1792], rdx
	jne	.LBB8_207
	jmp	.LBB8_208
	.p2align	4
.LBB8_210:
	mov	rdi, qword ptr [rbp - 1824]
	mov	rax, qword ptr [rbp - 1816]
	lea	rsi, [rbp - 112]
	mov	rdx, rbx
	call	qword ptr [rax + 112]
.LBB8_211:
	movzx	eax, byte ptr [rbp - 96]
	and	eax, 3
	je	.LBB8_210
	cmp	eax, 2
	jne	.LBB8_225
	mov	rdi, qword ptr [rbp - 1824]
	mov	rcx, qword ptr [rbp - 1816]
	mov	edx, 1
	xor	eax, eax
	lock		cmpxchg	qword ptr [rbp - 1784], rdx
	jne	.LBB8_348
.LBB8_214:
	mov	rdi, qword ptr [rbp - 1824]
	mov	rcx, qword ptr [rbp - 1816]
	mov	rax, qword ptr [rbp - 1784]
	.p2align	4
.LBB8_215:
	mov	rdx, rax
	and	rdx, -2
	lock		cmpxchg	qword ptr [rbp - 1784], rdx
	jne	.LBB8_215
	test	al, 1
	je	.LBB8_349
	test	byte ptr [rbp - 96], 3
	jne	.LBB8_220
.LBB8_218:
	lea	r14, [rbp - 112]
	.p2align	4
.LBB8_219:
	mov	rdi, qword ptr [rbp - 1824]
	mov	rax, qword ptr [rbp - 1816]
	mov	rsi, r14
	mov	rdx, rbx
	call	qword ptr [rax + 112]
	test	byte ptr [rbp - 96], 3
	je	.LBB8_219
.LBB8_220:
	mov	rdi, qword ptr [rbp - 1824]
	mov	rcx, qword ptr [rbp - 1816]
	mov	rax, qword ptr [rbp - 1792]
	.p2align	4
.LBB8_221:
	mov	rdx, rax
	and	rdx, -2
	lock		cmpxchg	qword ptr [rbp - 1792], rdx
	jne	.LBB8_221
	test	al, 1
	je	.LBB8_350
	mov	byte ptr [rbp - 1768], 1
	mov	rsi, qword ptr [rbp - 104]
	test	rsi, rsi
	jne	.LBB8_114
.LBB8_224:
	mov	qword ptr [rbp - 1776], 0
.LBB8_115:
	mov	rdi, qword ptr [rbp - 1824]
	mov	rcx, qword ptr [rbp - 1816]
	mov	r14d, 1
	xor	eax, eax
	lock		cmpxchg	qword ptr [rbp - 1792], r14
	jne	.LBB8_290
.LBB8_116:
	mov	rdi, qword ptr [rbp - 1824]
	mov	rcx, qword ptr [rbp - 1816]
	xor	eax, eax
	lock		cmpxchg	qword ptr [rbp - 1784], r14
	mov	si, 21
	je	.LBB8_573
	mov	rsi, rax
	mov	rdx, rbx
.LBB8_118:
	call	qword ptr [rcx + 96]
	mov	si, 21
	jmp	.LBB8_573
.LBB8_225:
	mov	rsi, qword ptr [rbp - 1800]
	lea	rdi, [rbp - 272]
	call	parser.RESP3Parser.parse__anon_4833
	cmp	word ptr [rbp - 224], 0
	mov	rdi, qword ptr [rbp - 1824]
	mov	rcx, qword ptr [rbp - 1816]
	je	.LBB8_238
	mov	edx, 1
	xor	eax, eax
	lock		cmpxchg	qword ptr [rbp - 1784], rdx
	jne	.LBB8_351
.LBB8_227:
	mov	rdi, qword ptr [rbp - 1824]
	mov	rcx, qword ptr [rbp - 1816]
	mov	rax, qword ptr [rbp - 1784]
	.p2align	4
.LBB8_228:
	mov	rdx, rax
	and	rdx, -2
	lock		cmpxchg	qword ptr [rbp - 1784], rdx
	jne	.LBB8_228
	test	al, 1
	je	.LBB8_352
	test	byte ptr [rbp - 96], 3
	jne	.LBB8_233
.LBB8_231:
	lea	r14, [rbp - 112]
.LBB8_232:
	mov	rdi, qword ptr [rbp - 1824]
	mov	rax, qword ptr [rbp - 1816]
	mov	rsi, r14
	mov	rdx, rbx
	call	qword ptr [rax + 112]
	test	byte ptr [rbp - 96], 3
	je	.LBB8_232
.LBB8_233:
	mov	rdi, qword ptr [rbp - 1824]
	mov	rcx, qword ptr [rbp - 1816]
	mov	rax, qword ptr [rbp - 1792]
	.p2align	4
.LBB8_234:
	mov	rdx, rax
	and	rdx, -2
	lock		cmpxchg	qword ptr [rbp - 1792], rdx
	jne	.LBB8_234
	test	al, 1
	je	.LBB8_353
	mov	byte ptr [rbp - 1768], 1
	mov	rsi, qword ptr [rbp - 104]
	test	rsi, rsi
	je	.LBB8_354
.LBB8_237:
	mov	byte ptr [rsi + 16], 2
	mov	rdi, qword ptr [rbp - 1824]
	mov	rax, qword ptr [rbp - 1816]
	xor	edx, edx
	call	qword ptr [rax + 120]
	jmp	.LBB8_355
.LBB8_238:
	mov	rax, qword ptr [rbp - 1792]
	.p2align	4
.LBB8_239:
	mov	rdx, rax
	and	rdx, -2
	lock		cmpxchg	qword ptr [rbp - 1792], rdx
	jne	.LBB8_239
	test	al, 1
	je	.LBB8_359
	mov	rsi, qword ptr [rbp - 104]
	test	rsi, rsi
	je	.LBB8_360
.LBB8_242:
	movzx	eax, byte ptr [rbp - 1768]
	inc	al
	mov	byte ptr [rsi + 16], al
	mov	rdi, qword ptr [rbp - 1824]
	mov	rax, qword ptr [rbp - 1816]
	xor	edx, edx
	call	qword ptr [rax + 120]
	jmp	.LBB8_361
.LBB8_244:
	mov	r15d, eax
.LBB8_245:
	mov	rsi, qword ptr [rbp - 72]
	test	rsi, rsi
	mov	r13, qword ptr [rbp - 48]
	je	.LBB8_247
	mov	rdi, qword ptr [rbp - 64]
	mov	rax, qword ptr [rbp - 56]
	lea	rdx, [rbp - 64]
	xor	ecx, ecx
	xor	r8d, r8d
	mov	rbx, r10
	call	qword ptr [rax + 24]
	mov	r10, rbx
	mov	qword ptr [rbp - 72], 0
.LBB8_247:
	mov	rdi, qword ptr [rbp - 64]
	mov	rcx, qword ptr [rbp - 56]
	mov	rax, qword ptr [rbp - 352]
	.p2align	4
.LBB8_248:
	mov	rdx, rax
	and	rdx, -2
	lock		cmpxchg	qword ptr [rbp - 352], rdx
	jne	.LBB8_248
	mov	rbx, r10
	test	al, 1
	je	.LBB8_254
.LBB8_250:
	mov	dword ptr [rsp], 1
	lea	rdi, [rbp - 416]
	lea	rsi, [rbp - 352]
	lea	rdx, [rbp - 64]
	lea	rcx, [rbp - 272]
	mov	r8d, 44
	mov	r9d, 44
	call	Io.TypeErasedQueue.getLocked
	mov	rdi, qword ptr [rbp - 64]
	mov	rcx, qword ptr [rbp - 56]
	mov	edx, 1
	xor	eax, eax
	lock		cmpxchg	qword ptr [rbp - 352], rdx
	jne	.LBB8_255
	test	byte ptr [rbp - 232], 1
	mov	r10, rbx
	jne	.LBB8_256
.LBB8_252:
	cmp	word ptr [rbp - 236], 0
	jne	.LBB8_247
	mov	esi, dword ptr [rbp - 272]
	mov	rdi, qword ptr [rbp - 64]
	mov	rax, qword ptr [rbp - 56]
	call	qword ptr [rax + 376]
	mov	r10, rbx
	jmp	.LBB8_247
.LBB8_254:
	lea	rdx, [rbp - 352]
	mov	rsi, rax
	call	qword ptr [rcx + 88]
	jmp	.LBB8_250
.LBB8_255:
	lea	rdx, [rbp - 352]
	mov	rsi, rax
	call	qword ptr [rcx + 96]
	test	byte ptr [rbp - 232], 1
	mov	r10, rbx
	je	.LBB8_252
.LBB8_256:
	mov	esi, r15d
	jmp	.LBB8_33
.LBB8_257:
	mov	esi, eax
	mov	byte ptr [rbp - 1768], 1
	mov	rdi, qword ptr [rbp - 1824]
	mov	rcx, qword ptr [rbp - 1816]
	mov	edx, 1
	xor	eax, eax
	lock		cmpxchg	qword ptr [rbp - 1792], rdx
	mov	r15d, esi
	lea	rbx, [rbp - 1784]
	jne	.LBB8_506
.LBB8_258:
	mov	rdi, qword ptr [rbp - 1824]
	mov	rcx, qword ptr [rbp - 1816]
	mov	rax, qword ptr [rbp - 1784]
.LBB8_259:
	mov	rdx, rax
	and	rdx, -2
	lock		cmpxchg	qword ptr [rbp - 1784], rdx
	jne	.LBB8_259
	test	al, 1
	je	.LBB8_507
	test	byte ptr [rbp - 256], 3
	jne	.LBB8_264
.LBB8_262:
	lea	r14, [rbp - 272]
.LBB8_263:
	mov	rdi, qword ptr [rbp - 1824]
	mov	rax, qword ptr [rbp - 1816]
	mov	rsi, r14
	mov	rdx, rbx
	call	qword ptr [rax + 112]
	test	byte ptr [rbp - 256], 3
	je	.LBB8_263
.LBB8_264:
	mov	rdi, qword ptr [rbp - 1824]
	mov	rcx, qword ptr [rbp - 1816]
	mov	rax, qword ptr [rbp - 1792]
.LBB8_265:
	mov	rdx, rax
	and	rdx, -2
	lock		cmpxchg	qword ptr [rbp - 1792], rdx
	jne	.LBB8_265
	jmp	.LBB8_134
.LBB8_266:
	mov	rsi, rax
	mov	r13, r10
	vzeroupper
	call	Io.Threaded.mutexLock
	mov	r10, r13
	lea	rdx, [rbp - 1792]
	mov	esi, eax
	test	ax, ax
	jne	.LBB8_573
	jmp	.LBB8_37
.LBB8_267:
	mov	rsi, rax
	mov	r14, rdx
	mov	r12, r10
	vzeroupper
	call	Io.Threaded.mutexLock
	mov	r10, r12
	mov	rdx, r14
	mov	esi, eax
	test	ax, ax
	jne	.LBB8_573
	jmp	.LBB8_60
.LBB8_268:
	mov	esi, eax
	mov	byte ptr [rbp - 1768], 1
	mov	rdi, qword ptr [rbp - 1824]
	mov	rcx, qword ptr [rbp - 1816]
	mov	edx, 1
	xor	eax, eax
	lock		cmpxchg	qword ptr [rbp - 1792], rdx
	mov	r15d, esi
	lea	rbx, [rbp - 1784]
	jne	.LBB8_578
.LBB8_269:
	mov	rdi, qword ptr [rbp - 1824]
	mov	rcx, qword ptr [rbp - 1816]
	mov	rax, qword ptr [rbp - 1784]
.LBB8_270:
	mov	rdx, rax
	and	rdx, -2
	lock		cmpxchg	qword ptr [rbp - 1784], rdx
	jne	.LBB8_270
	test	al, 1
	je	.LBB8_579
	test	byte ptr [rbp - 256], 3
	jne	.LBB8_275
.LBB8_273:
	lea	r14, [rbp - 272]
.LBB8_274:
	mov	rdi, qword ptr [rbp - 1824]
	mov	rax, qword ptr [rbp - 1816]
	mov	rsi, r14
	mov	rdx, rbx
	call	qword ptr [rax + 112]
	test	byte ptr [rbp - 256], 3
	je	.LBB8_274
.LBB8_275:
	mov	rdi, qword ptr [rbp - 1824]
	mov	rcx, qword ptr [rbp - 1816]
	mov	rax, qword ptr [rbp - 1792]
.LBB8_276:
	mov	rdx, rax
	and	rdx, -2
	lock		cmpxchg	qword ptr [rbp - 1792], rdx
	jne	.LBB8_276
	jmp	.LBB8_286
.LBB8_277:
	mov	esi, eax
	mov	byte ptr [rbp - 1768], 1
	mov	rdi, qword ptr [rbp - 1824]
	mov	rcx, qword ptr [rbp - 1816]
	mov	edx, 1
	xor	eax, eax
	lock		cmpxchg	qword ptr [rbp - 1792], rdx
	mov	r15d, esi
	jne	.LBB8_580
.LBB8_278:
	mov	rdi, qword ptr [rbp - 1824]
	mov	rcx, qword ptr [rbp - 1816]
	mov	rax, qword ptr [rbp - 1784]
.LBB8_279:
	mov	rdx, rax
	and	rdx, -2
	lock		cmpxchg	qword ptr [rbp - 1784], rdx
	jne	.LBB8_279
	test	al, 1
	je	.LBB8_581
	test	byte ptr [rbp - 256], 3
	jne	.LBB8_284
.LBB8_282:
	lea	r14, [rbp - 272]
.LBB8_283:
	mov	rdi, qword ptr [rbp - 1824]
	mov	rax, qword ptr [rbp - 1816]
	mov	rsi, r14
	mov	rdx, rbx
	call	qword ptr [rax + 112]
	test	byte ptr [rbp - 256], 3
	je	.LBB8_283
.LBB8_284:
	mov	rdi, qword ptr [rbp - 1824]
	mov	rcx, qword ptr [rbp - 1816]
	mov	rax, qword ptr [rbp - 1792]
.LBB8_285:
	mov	rdx, rax
	and	rdx, -2
	lock		cmpxchg	qword ptr [rbp - 1792], rdx
	jne	.LBB8_285
.LBB8_286:
	test	al, 1
	je	.LBB8_494
	mov	byte ptr [rbp - 1768], 1
	mov	rsi, qword ptr [rbp - 264]
	test	rsi, rsi
	je	.LBB8_495
.LBB8_288:
	mov	byte ptr [rsi + 16], 2
	mov	rdi, qword ptr [rbp - 1824]
	mov	rax, qword ptr [rbp - 1816]
	xor	edx, edx
	call	qword ptr [rax + 120]
	jmp	.LBB8_496
.LBB8_289:
	mov	rsi, rax
	lea	rdx, [rbp - 1792]
	call	qword ptr [rcx + 96]
	jmp	.LBB8_46
.LBB8_290:
	mov	rsi, rax
	lea	rdx, [rbp - 1792]
	call	qword ptr [rcx + 96]
	jmp	.LBB8_116
.LBB8_291:
	mov	r15d, eax
	mov	byte ptr [rbp - 1768], 1
	mov	rdi, qword ptr [rbp - 1824]
	mov	rcx, qword ptr [rbp - 1816]
	mov	edx, 1
	xor	eax, eax
	lock		cmpxchg	qword ptr [rbp - 1792], rdx
	jne	.LBB8_583
.LBB8_292:
	mov	rdi, qword ptr [rbp - 1824]
	mov	rcx, qword ptr [rbp - 1816]
	mov	rax, qword ptr [rbp - 1784]
.LBB8_293:
	mov	rdx, rax
	and	rdx, -2
	lock		cmpxchg	qword ptr [rbp - 1784], rdx
	jne	.LBB8_293
	test	al, 1
	je	.LBB8_584
	test	byte ptr [rbp - 256], 3
	lea	rbx, [rbp - 1784]
	jne	.LBB8_298
.LBB8_296:
	lea	r14, [rbp - 272]
.LBB8_297:
	mov	rdi, qword ptr [rbp - 1824]
	mov	rax, qword ptr [rbp - 1816]
	mov	rsi, r14
	mov	rdx, rbx
	call	qword ptr [rax + 112]
	test	byte ptr [rbp - 256], 3
	je	.LBB8_297
.LBB8_298:
	mov	rdi, qword ptr [rbp - 1824]
	mov	rcx, qword ptr [rbp - 1816]
	mov	rax, qword ptr [rbp - 1792]
.LBB8_299:
	mov	rdx, rax
	and	rdx, -2
	lock		cmpxchg	qword ptr [rbp - 1792], rdx
	jne	.LBB8_299
	test	al, 1
	je	.LBB8_301
.LBB8_98:
	mov	byte ptr [rbp - 1768], 1
	mov	rsi, qword ptr [rbp - 264]
	test	rsi, rsi
	je	.LBB8_302
.LBB8_99:
	mov	byte ptr [rsi + 16], 2
	mov	rdi, qword ptr [rbp - 1824]
	mov	rax, qword ptr [rbp - 1816]
	xor	edx, edx
	call	qword ptr [rax + 120]
	jmp	.LBB8_303
.LBB8_307:
	mov	rsi, rax
	lea	rdx, [rbp - 1792]
	call	qword ptr [rcx + 96]
	jmp	.LBB8_85
.LBB8_308:
	test	rsi, rsi
	je	.LBB8_140
	mov	rdi, qword ptr [rbp - 64]
	mov	rax, qword ptr [rbp - 56]
	lea	rdx, [rbp - 64]
	xor	ecx, ecx
	xor	r8d, r8d
	vzeroupper
	call	qword ptr [rax + 24]
	jmp	.LBB8_140
.LBB8_135:
	mov	rsi, rax
	lea	rdx, [rbp - 1792]
	call	qword ptr [rcx + 88]
	mov	byte ptr [rbp - 1768], 1
	mov	rsi, qword ptr [rbp - 264]
	test	rsi, rsi
	jne	.LBB8_166
.LBB8_136:
	mov	qword ptr [rbp - 1776], 0
.LBB8_167:
	mov	esi, r15d
	mov	rdi, qword ptr [rbp - 1824]
	mov	rcx, qword ptr [rbp - 1816]
	mov	r14d, 1
	xor	eax, eax
	lock		cmpxchg	qword ptr [rbp - 1792], r14
	jne	.LBB8_497
.LBB8_168:
	mov	rdi, qword ptr [rbp - 1824]
	mov	rcx, qword ptr [rbp - 1816]
	xor	eax, eax
	lock		cmpxchg	qword ptr [rbp - 1784], r14
	jne	.LBB8_169
.LBB8_573:
	mov	eax, esi
	add	rsp, 1912
	pop	rbx
	pop	r12
	pop	r13
	pop	r14
	pop	r15
	pop	rbp
	.cfi_def_cfa rsp, 8
	vzeroupper
	ret
.LBB8_169:
	.cfi_def_cfa rbp, 16
	mov	rsi, rax
	mov	rdx, rbx
.LBB8_170:
	call	qword ptr [rcx + 96]
	mov	esi, r15d
	jmp	.LBB8_573
.LBB8_310:
	mov	rsi, rax
	mov	rdx, rbx
	call	qword ptr [rcx + 96]
	jmp	.LBB8_68
.LBB8_311:
	mov	rsi, rax
	mov	rdx, rbx
	call	qword ptr [rcx + 88]
	test	byte ptr [rbp - 256], 3
	jne	.LBB8_74
	jmp	.LBB8_72
.LBB8_312:
	mov	rdi, rsi
	mov	esi, 1
	mov	r14, rdi
	call	Io.Reader.fillUnbuffered
	test	ax, ax
	jne	.LBB8_125
	mov	rsi, r14
	mov	rax, qword ptr [r14 + 24]
	mov	r13, qword ptr [rbp - 48]
	jmp	.LBB8_124
.LBB8_314:
	mov	rsi, rax
	mov	rdx, rbx
	call	qword ptr [rcx + 96]
	jmp	.LBB8_126
.LBB8_315:
	mov	rsi, rax
	mov	rdx, rbx
	call	qword ptr [rcx + 88]
	test	byte ptr [rbp - 256], 3
	jne	.LBB8_132
	jmp	.LBB8_130
.LBB8_316:
	mov	rsi, rax
	mov	rdx, rbx
	call	qword ptr [rcx + 96]
	jmp	.LBB8_104
.LBB8_317:
	mov	rsi, rax
	mov	rdx, rbx
	call	qword ptr [rcx + 88]
	test	byte ptr [rbp - 256], 3
	jne	.LBB8_110
	jmp	.LBB8_108
.LBB8_318:
	mov	rdi, rsi
	mov	esi, 1
	mov	r14, rdi
	call	Io.Reader.fillUnbuffered
	test	ax, ax
	je	.LBB8_600
	mov	esi, eax
	lea	rbx, [rbp - 1784]
	jmp	.LBB8_156
.LBB8_320:
	mov	rsi, rax
	mov	rdx, rbx
	call	qword ptr [rcx + 96]
	jmp	.LBB8_182
.LBB8_321:
	mov	rsi, rax
	lea	rdx, [rbp - 1792]
	call	qword ptr [rcx + 96]
	mov	r13, qword ptr [rbp - 48]
	lea	rbx, [rbp - 1784]
	jmp	.LBB8_183
.LBB8_322:
	mov	rsi, rax
	lea	rdx, [rbp - 1792]
	call	qword ptr [rcx + 80]
	mov	esi, eax
	test	ax, ax
	jne	.LBB8_573
	jmp	.LBB8_186
.LBB8_347:
	mov	rsi, rax
	lea	rdx, [rbp - 1792]
	call	qword ptr [rcx + 88]
	mov	rsi, qword ptr [rbp - 264]
	test	rsi, rsi
	jne	.LBB8_180
	jmp	.LBB8_175
.LBB8_323:
	mov	r15d, eax
	mov	byte ptr [rbp - 1768], 1
	mov	rdi, qword ptr [rbp - 1824]
	mov	rcx, qword ptr [rbp - 1816]
	mov	edx, 1
	xor	eax, eax
	lock		cmpxchg	qword ptr [rbp - 1792], rdx
	jne	.LBB8_591
.LBB8_324:
	mov	rdi, qword ptr [rbp - 1824]
	mov	rcx, qword ptr [rbp - 1816]
	mov	rax, qword ptr [rbp - 1784]
.LBB8_325:
	mov	rdx, rax
	and	rdx, -2
	lock		cmpxchg	qword ptr [rbp - 1784], rdx
	jne	.LBB8_325
	test	al, 1
	je	.LBB8_592
	test	byte ptr [rbp - 96], 3
	lea	rbx, [rbp - 1784]
	jne	.LBB8_330
.LBB8_328:
	lea	r14, [rbp - 112]
.LBB8_329:
	mov	rdi, qword ptr [rbp - 1824]
	mov	rax, qword ptr [rbp - 1816]
	mov	rsi, r14
	mov	rdx, rbx
	call	qword ptr [rax + 112]
	test	byte ptr [rbp - 96], 3
	je	.LBB8_329
.LBB8_330:
	mov	rdi, qword ptr [rbp - 1824]
	mov	rcx, qword ptr [rbp - 1816]
	mov	rax, qword ptr [rbp - 1792]
.LBB8_331:
	mov	rdx, rax
	and	rdx, -2
	lock		cmpxchg	qword ptr [rbp - 1792], rdx
	jne	.LBB8_331
	jmp	.LBB8_208
.LBB8_334:
	mov	rsi, rax
	mov	rdx, rbx
	call	qword ptr [rcx + 96]
	jmp	.LBB8_157
.LBB8_335:
	mov	rsi, rax
	mov	rdx, rbx
	call	qword ptr [rcx + 88]
	test	byte ptr [rbp - 256], 3
	jne	.LBB8_163
	jmp	.LBB8_161
.LBB8_336:
	mov	r15d, eax
	mov	byte ptr [rbp - 1768], 1
	mov	rdi, qword ptr [rbp - 1824]
	mov	rcx, qword ptr [rbp - 1816]
	mov	edx, 1
	xor	eax, eax
	lock		cmpxchg	qword ptr [rbp - 1792], rdx
	jne	.LBB8_593
.LBB8_337:
	mov	rdi, qword ptr [rbp - 1824]
	mov	rcx, qword ptr [rbp - 1816]
	mov	rax, qword ptr [rbp - 1784]
.LBB8_338:
	mov	rdx, rax
	and	rdx, -2
	lock		cmpxchg	qword ptr [rbp - 1784], rdx
	jne	.LBB8_338
	test	al, 1
	je	.LBB8_594
	test	byte ptr [rbp - 96], 3
	lea	rbx, [rbp - 1784]
	jne	.LBB8_343
.LBB8_341:
	lea	r14, [rbp - 112]
.LBB8_342:
	mov	rdi, qword ptr [rbp - 1824]
	mov	rax, qword ptr [rbp - 1816]
	mov	rsi, r14
	mov	rdx, rbx
	call	qword ptr [rax + 112]
	test	byte ptr [rbp - 96], 3
	je	.LBB8_342
.LBB8_343:
	mov	rdi, qword ptr [rbp - 1824]
	mov	rcx, qword ptr [rbp - 1816]
	mov	rax, qword ptr [rbp - 1792]
.LBB8_344:
	mov	rdx, rax
	and	rdx, -2
	lock		cmpxchg	qword ptr [rbp - 1792], rdx
	jne	.LBB8_344
.LBB8_208:
	test	al, 1
	je	.LBB8_333
	mov	byte ptr [rbp - 1768], 1
	mov	rsi, qword ptr [rbp - 104]
	test	rsi, rsi
	jne	.LBB8_99
.LBB8_302:
	mov	qword ptr [rbp - 1776], 0
.LBB8_303:
	mov	rdi, qword ptr [rbp - 1824]
	mov	rcx, qword ptr [rbp - 1816]
	mov	r14d, 1
	xor	eax, eax
	lock		cmpxchg	qword ptr [rbp - 1792], r14
	jne	.LBB8_304
.LBB8_305:
	mov	rdi, qword ptr [rbp - 1824]
	mov	rcx, qword ptr [rbp - 1816]
	xor	eax, eax
	lock		cmpxchg	qword ptr [rbp - 1784], r14
	jne	.LBB8_601
	mov	esi, r15d
	jmp	.LBB8_573
.LBB8_346:
	mov	rsi, rax
	lea	rdx, [rbp - 1792]
	call	qword ptr [rcx + 96]
	jmp	.LBB8_196
.LBB8_348:
	mov	rsi, rax
	mov	rdx, rbx
	call	qword ptr [rcx + 96]
	jmp	.LBB8_214
.LBB8_349:
	mov	rsi, rax
	mov	rdx, rbx
	call	qword ptr [rcx + 88]
	test	byte ptr [rbp - 96], 3
	jne	.LBB8_220
	jmp	.LBB8_218
.LBB8_350:
	mov	rsi, rax
	lea	rdx, [rbp - 1792]
	call	qword ptr [rcx + 88]
	mov	byte ptr [rbp - 1768], 1
	mov	rsi, qword ptr [rbp - 104]
	test	rsi, rsi
	jne	.LBB8_114
	jmp	.LBB8_224
.LBB8_351:
	mov	rsi, rax
	mov	rdx, rbx
	call	qword ptr [rcx + 96]
	jmp	.LBB8_227
.LBB8_352:
	mov	rsi, rax
	mov	rdx, rbx
	call	qword ptr [rcx + 88]
	test	byte ptr [rbp - 96], 3
	jne	.LBB8_233
	jmp	.LBB8_231
.LBB8_353:
	mov	rsi, rax
	lea	rdx, [rbp - 1792]
	call	qword ptr [rcx + 88]
	mov	byte ptr [rbp - 1768], 1
	mov	rsi, qword ptr [rbp - 104]
	test	rsi, rsi
	jne	.LBB8_237
.LBB8_354:
	mov	qword ptr [rbp - 1776], 0
.LBB8_355:
	mov	rdi, qword ptr [rbp - 1824]
	mov	rcx, qword ptr [rbp - 1816]
	mov	r14d, 1
	xor	eax, eax
	lock		cmpxchg	qword ptr [rbp - 1792], r14
	jne	.LBB8_358
.LBB8_356:
	mov	rdi, qword ptr [rbp - 1824]
	mov	rcx, qword ptr [rbp - 1816]
	xor	eax, eax
	lock		cmpxchg	qword ptr [rbp - 1784], r14
	je	.LBB8_363
	mov	rsi, rax
	mov	rdx, rbx
	jmp	.LBB8_454
.LBB8_358:
	mov	rsi, rax
	lea	rdx, [rbp - 1792]
	call	qword ptr [rcx + 96]
	jmp	.LBB8_356
.LBB8_359:
	mov	rsi, rax
	lea	rdx, [rbp - 1792]
	call	qword ptr [rcx + 88]
	mov	rsi, qword ptr [rbp - 104]
	test	rsi, rsi
	jne	.LBB8_242
.LBB8_360:
	mov	qword ptr [rbp - 1776], 0
.LBB8_361:
	mov	rdi, qword ptr [rbp - 1824]
	mov	rcx, qword ptr [rbp - 1816]
	mov	r14d, 1
	xor	eax, eax
	lock		cmpxchg	qword ptr [rbp - 1784], r14
	jne	.LBB8_452
.LBB8_362:
	mov	rdi, qword ptr [rbp - 1824]
	mov	rcx, qword ptr [rbp - 1816]
	xor	eax, eax
	lock		cmpxchg	qword ptr [rbp - 1792], r14
	jne	.LBB8_453
.LBB8_363:
	mov	rcx, qword ptr [rbp - 240]
	vmovups	ymm0, ymmword ptr [rbp - 272]
	movzx	eax, byte ptr [rbp - 232]
	movzx	esi, word ptr [rbp - 224]
	vmovups	ymmword ptr [rbp - 400], ymm0
	mov	qword ptr [rbp - 368], rcx
	test	si, si
	jne	.LBB8_573
	test	al, 3
	je	.LBB8_366
	vmovups	ymm0, ymmword ptr [rbp - 400]
	vmovups	ymmword ptr [rbp - 160], ymm0
	mov	rax, qword ptr [rbp - 368]
	mov	qword ptr [rbp - 128], rax
	lea	rdi, [rbp - 152]
	mov	rsi, qword ptr [rbp - 160]
	lea	rdx, [rip + __anon_4852]
	mov	ecx, 6
	vzeroupper
	call	mem.eql__anon_4857
	movzx	eax, al
	and	eax, 1
	mov	esi, 82
	sub	esi, eax
	jmp	.LBB8_573
.LBB8_366:
	vmovups	ymm0, ymmword ptr [rbp - 1824]
	vmovups	ymm1, ymmword ptr [rbp - 1792]
	vmovups	ymmword ptr [rbp - 1904], ymm1
	vmovups	ymmword ptr [rbp - 1936], ymm0
	vmovups	ymmword ptr [r13 + 200], ymm1
	vmovups	ymmword ptr [r13 + 168], ymm0
	mov	byte ptr [r13 + 2596], 1
	mov	r14, qword ptr [r13 + 416]
	mov	r12, qword ptr [r13 + 424]
	lea	rbx, [r13 + 200]
	mov	rdi, qword ptr [r13 + 168]
	mov	rcx, qword ptr [r13 + 176]
	mov	rax, qword ptr [r13 + 200]
.LBB8_367:
	mov	rdx, rax
	and	rdx, -2
	lock		cmpxchg	qword ptr [rbx], rdx
	jne	.LBB8_367
	test	al, 1
	je	.LBB8_455
.LBB8_369:
	cmp	byte ptr [r13 + 224], 1
	jne	.LBB8_372
	mov	rdi, qword ptr [r13 + 168]
	mov	rcx, qword ptr [r13 + 176]
	mov	edx, 1
	xor	eax, eax
	lock		cmpxchg	qword ptr [r13 + 200], rdx
	mov	si, 80
	je	.LBB8_573
	mov	rsi, rax
	mov	rdx, rbx
	jmp	.LBB8_63
.LBB8_372:
	mov	rax, qword ptr [r13 + 216]
	test	rax, rax
	sete	byte ptr [rbp - 144]
	vxorps	xmm0, xmm0, xmm0
	vmovaps	xmmword ptr [rbp - 160], xmm0
	je	.LBB8_374
	lea	rcx, [rbp - 160]
	mov	qword ptr [rax + 8], rcx
.LBB8_374:
	lea	rax, [rbp - 160]
	mov	qword ptr [r13 + 216], rax
	mov	r15, qword ptr [r13 + 184]
	mov	esi, 6
	mov	rdi, r15
	vzeroupper
	call	Io.Writer.print__anon_4619
	test	ax, ax
	jne	.LBB8_435
	lea	rsi, [rip + .L__unnamed_6]
	mov	rdi, r15
	call	serializer.CommandSerializer.serializeArgument__anon_4980
	test	ax, ax
	jne	.LBB8_435
	lea	rsi, [rip + .L__unnamed_7]
	mov	rdi, r15
	call	serializer.CommandSerializer.serializeArgument__anon_4980
	test	ax, ax
	jne	.LBB8_435
	mov	rdi, r15
	mov	rsi, r14
	mov	rdx, r12
	call	serializer.CommandSerializer.serializeArgument__anon_4640
	test	ax, ax
	jne	.LBB8_435
	lea	rsi, [rip + __anon_2596]
	mov	edx, 3
	mov	rdi, r15
	call	serializer.CommandSerializer.serializeArgument__anon_4640
	test	ax, ax
	jne	.LBB8_435
	mov	rdi, r15
	mov	esi, 36
	call	serializer.CommandSerializer.serializeArgument__anon_4820
	test	ax, ax
	jne	.LBB8_435
	lea	r13, [rip + __anon_7133]
	lea	r14, [rbp - 1824]
	lea	r12, [rbp - 400]
.LBB8_381:
	mov	rax, qword ptr [r15 + 24]
	cmp	rax, qword ptr [r15 + 16]
	jb	.LBB8_384
	mov	rax, qword ptr [r15]
	mov	rax, qword ptr [rax]
	mov	qword ptr [rbp - 400], r13
	mov	qword ptr [rbp - 392], 1
	mov	ecx, 1
	mov	r8d, 1
	mov	rdi, r14
	mov	rsi, r15
	mov	rdx, r12
	call	rax
	movzx	eax, word ptr [rbp - 1816]
	mov	dword ptr [rbp - 80], eax
	test	ax, ax
	jne	.LBB8_436
	cmp	qword ptr [rbp - 1824], 0
	je	.LBB8_381
	jmp	.LBB8_385
.LBB8_384:
	mov	rcx, qword ptr [r15 + 8]
	mov	byte ptr [rcx + rax], 36
	inc	qword ptr [r15 + 24]
.LBB8_385:
	lea	rsi, [rbp - 1760]
	mov	byte ptr [rbp - 1760], 56
	mov	edx, 1
	mov	rdi, r15
	call	Io.Writer.alignBufferOptions
	test	ax, ax
	jne	.LBB8_435
	xor	r12d, r12d
	lea	r14, [rip + __anon_7106]
.LBB8_387:
	lea	rsi, [r14 + r12]
	mov	r13d, 2
	sub	r13, r12
	mov	rdi, qword ptr [r15 + 24]
	lea	rax, [rdi + r13]
	cmp	rax, qword ptr [r15 + 16]
	ja	.LBB8_389
	add	rdi, qword ptr [r15 + 8]
	mov	rdx, r13
	call	memcpy@PLT
	add	qword ptr [r15 + 24], r13
	add	r12, r13
	cmp	r12, 2
	jb	.LBB8_387
	jmp	.LBB8_391
.LBB8_389:
	mov	rax, qword ptr [r15]
	mov	rax, qword ptr [rax]
	mov	qword ptr [rbp - 400], rsi
	mov	qword ptr [rbp - 392], r13
	mov	ecx, 1
	mov	r8d, 1
	lea	rdi, [rbp - 1824]
	mov	rsi, r15
	lea	rdx, [rbp - 400]
	call	rax
	movzx	eax, word ptr [rbp - 1816]
	mov	dword ptr [rbp - 80], eax
	test	ax, ax
	jne	.LBB8_436
	mov	r13, qword ptr [rbp - 1824]
	add	r12, r13
	cmp	r12, 2
	jb	.LBB8_387
.LBB8_391:
	movabs	rax, 5566806834311023437
	mov	qword ptr [rbp - 1824], rax
	mov	byte ptr [rbp - 1816], 0
	lea	rsi, [rbp - 1824]
	mov	edx, 8
	mov	rdi, r15
	call	Io.Writer.alignBufferOptions
	test	ax, ax
	jne	.LBB8_435
	xor	r12d, r12d
.LBB8_393:
	lea	rsi, [r14 + r12]
	mov	r13d, 2
	sub	r13, r12
	mov	rdi, qword ptr [r15 + 24]
	lea	rax, [rdi + r13]
	cmp	rax, qword ptr [r15 + 16]
	ja	.LBB8_395
	add	rdi, qword ptr [r15 + 8]
	mov	rdx, r13
	call	memcpy@PLT
	add	qword ptr [r15 + 24], r13
	add	r12, r13
	cmp	r12, 2
	jb	.LBB8_393
	jmp	.LBB8_397
.LBB8_395:
	mov	rax, qword ptr [r15]
	mov	rax, qword ptr [rax]
	mov	qword ptr [rbp - 400], rsi
	mov	qword ptr [rbp - 392], r13
	mov	ecx, 1
	mov	r8d, 1
	lea	rdi, [rbp - 1824]
	mov	rsi, r15
	lea	rdx, [rbp - 400]
	call	rax
	movzx	eax, word ptr [rbp - 1816]
	mov	dword ptr [rbp - 80], eax
	test	ax, ax
	jne	.LBB8_436
	mov	r13, qword ptr [rbp - 1824]
	add	r12, r13
	cmp	r12, 2
	jb	.LBB8_393
.LBB8_397:
	mov	r13, qword ptr [rbp - 48]
	mov	rdi, qword ptr [r13 + 184]
	mov	rax, qword ptr [rdi]
	call	qword ptr [rax + 16]
	test	ax, ax
	jne	.LBB8_456
	mov	rdi, qword ptr [r13 + 168]
	mov	rcx, qword ptr [r13 + 176]
	mov	edx, 1
	xor	eax, eax
	lock		cmpxchg	qword ptr [r13 + 200], rdx
	jne	.LBB8_468
.LBB8_399:
	lea	r15, [r13 + 208]
	mov	rdi, qword ptr [r13 + 168]
	mov	rcx, qword ptr [r13 + 176]
	mov	rax, qword ptr [r13 + 208]
.LBB8_400:
	mov	rdx, rax
	and	rdx, -2
	lock		cmpxchg	qword ptr [r15], rdx
	jne	.LBB8_400
	test	al, 1
	je	.LBB8_469
.LBB8_402:
	movzx	eax, byte ptr [rbp - 144]
	and	eax, 3
	jne	.LBB8_404
	mov	rdi, qword ptr [r13 + 168]
	mov	rax, qword ptr [r13 + 176]
	lea	rsi, [rbp - 160]
	mov	rdx, r15
	call	qword ptr [rax + 112]
	jmp	.LBB8_402
.LBB8_404:
	cmp	eax, 2
	jne	.LBB8_417
	mov	rdi, qword ptr [r13 + 168]
	mov	rcx, qword ptr [r13 + 176]
	mov	edx, 1
	xor	eax, eax
	lock		cmpxchg	qword ptr [r13 + 208], rdx
	jne	.LBB8_480
.LBB8_406:
	mov	rdi, qword ptr [r13 + 168]
	mov	rcx, qword ptr [r13 + 176]
	mov	rax, qword ptr [r13 + 208]
.LBB8_407:
	mov	rdx, rax
	and	rdx, -2
	lock		cmpxchg	qword ptr [r15], rdx
	jne	.LBB8_407
	test	al, 1
	je	.LBB8_481
	test	byte ptr [rbp - 144], 3
	jne	.LBB8_412
.LBB8_410:
	lea	r14, [rbp - 160]
.LBB8_411:
	mov	rdi, qword ptr [r13 + 168]
	mov	rax, qword ptr [r13 + 176]
	mov	rsi, r14
	mov	rdx, r15
	call	qword ptr [rax + 112]
	test	byte ptr [rbp - 144], 3
	je	.LBB8_411
.LBB8_412:
	mov	rdi, qword ptr [r13 + 168]
	mov	rcx, qword ptr [r13 + 176]
	mov	rax, qword ptr [r13 + 200]
.LBB8_413:
	mov	rdx, rax
	and	rdx, -2
	lock		cmpxchg	qword ptr [rbx], rdx
	jne	.LBB8_413
	test	al, 1
	je	.LBB8_482
	mov	byte ptr [r13 + 224], 1
	mov	rsi, qword ptr [rbp - 152]
	test	rsi, rsi
	je	.LBB8_483
.LBB8_416:
	mov	byte ptr [rsi + 16], 2
	mov	rdi, qword ptr [r13 + 168]
	mov	rax, qword ptr [r13 + 176]
	xor	edx, edx
	call	qword ptr [rax + 120]
	jmp	.LBB8_484
.LBB8_417:
	mov	rsi, qword ptr [r13 + 192]
	lea	rdi, [rbp - 272]
	call	parser.RESP3Parser.parse__anon_4833
	cmp	word ptr [rbp - 224], 0
	mov	rdi, qword ptr [r13 + 168]
	mov	rcx, qword ptr [r13 + 176]
	je	.LBB8_430
	mov	edx, 1
	xor	eax, eax
	lock		cmpxchg	qword ptr [r15], rdx
	jne	.LBB8_498
.LBB8_419:
	mov	rdi, qword ptr [r13 + 168]
	mov	rcx, qword ptr [r13 + 176]
	mov	rax, qword ptr [r13 + 208]
.LBB8_420:
	mov	rdx, rax
	and	rdx, -2
	lock		cmpxchg	qword ptr [r15], rdx
	jne	.LBB8_420
	test	al, 1
	je	.LBB8_499
	test	byte ptr [rbp - 144], 3
	jne	.LBB8_425
.LBB8_423:
	lea	r14, [rbp - 160]
.LBB8_424:
	mov	rdi, qword ptr [r13 + 168]
	mov	rax, qword ptr [r13 + 176]
	mov	rsi, r14
	mov	rdx, r15
	call	qword ptr [rax + 112]
	test	byte ptr [rbp - 144], 3
	je	.LBB8_424
.LBB8_425:
	mov	rdi, qword ptr [r13 + 168]
	mov	rcx, qword ptr [r13 + 176]
	mov	rax, qword ptr [r13 + 200]
.LBB8_426:
	mov	rdx, rax
	and	rdx, -2
	lock		cmpxchg	qword ptr [rbx], rdx
	jne	.LBB8_426
	test	al, 1
	je	.LBB8_500
	mov	byte ptr [r13 + 224], 1
	mov	rsi, qword ptr [rbp - 152]
	test	rsi, rsi
	je	.LBB8_501
.LBB8_429:
	mov	byte ptr [rsi + 16], 2
	mov	rdi, qword ptr [r13 + 168]
	mov	rax, qword ptr [r13 + 176]
	xor	edx, edx
	call	qword ptr [rax + 120]
	jmp	.LBB8_502
.LBB8_430:
	mov	rax, qword ptr [rbx]
.LBB8_431:
	mov	rdx, rax
	and	rdx, -2
	lock		cmpxchg	qword ptr [rbx], rdx
	jne	.LBB8_431
	test	al, 1
	je	.LBB8_508
	mov	rsi, qword ptr [rbp - 152]
	test	rsi, rsi
	je	.LBB8_509
.LBB8_434:
	movzx	eax, byte ptr [r13 + 224]
	inc	al
	mov	byte ptr [rsi + 16], al
	mov	rdi, qword ptr [r13 + 168]
	mov	rax, qword ptr [r13 + 176]
	xor	edx, edx
	call	qword ptr [rax + 120]
	jmp	.LBB8_510
.LBB8_435:
	mov	dword ptr [rbp - 80], eax
.LBB8_436:
	mov	rsi, qword ptr [rbp - 48]
	mov	byte ptr [rsi + 224], 1
	mov	rdi, qword ptr [rsi + 168]
	mov	rcx, qword ptr [rsi + 176]
	mov	edx, 1
	xor	eax, eax
	lock		cmpxchg	qword ptr [rsi + 200], rdx
	jne	.LBB8_586
.LBB8_437:
	mov	rax, qword ptr [rbp - 48]
	lea	r15, [rax + 208]
	mov	rdi, qword ptr [rax + 168]
	mov	rcx, qword ptr [rax + 176]
	mov	rax, qword ptr [rax + 208]
.LBB8_438:
	mov	rdx, rax
	and	rdx, -2
	lock		cmpxchg	qword ptr [r15], rdx
	jne	.LBB8_438
	test	al, 1
	je	.LBB8_587
	test	byte ptr [rbp - 144], 3
	mov	r12, qword ptr [rbp - 48]
	jne	.LBB8_443
.LBB8_441:
	lea	r14, [rbp - 160]
.LBB8_442:
	mov	rdi, qword ptr [r12 + 168]
	mov	rax, qword ptr [r12 + 176]
	mov	rsi, r14
	mov	rdx, r15
	call	qword ptr [rax + 112]
	test	byte ptr [rbp - 144], 3
	je	.LBB8_442
.LBB8_443:
	mov	rdi, qword ptr [r12 + 168]
	mov	rcx, qword ptr [r12 + 176]
	mov	rax, qword ptr [r12 + 200]
.LBB8_444:
	mov	rdx, rax
	and	rdx, -2
	lock		cmpxchg	qword ptr [rbx], rdx
	jne	.LBB8_444
	test	al, 1
	je	.LBB8_588
.LBB8_446:
	mov	rax, qword ptr [rbp - 48]
	mov	byte ptr [rax + 224], 1
	mov	rsi, qword ptr [rbp - 152]
	test	rsi, rsi
	je	.LBB8_448
	mov	byte ptr [rsi + 16], 2
	mov	rax, qword ptr [rbp - 48]
	mov	rdi, qword ptr [rax + 168]
	mov	rax, qword ptr [rax + 176]
	xor	edx, edx
	call	qword ptr [rax + 120]
	jmp	.LBB8_449
.LBB8_448:
	mov	rax, qword ptr [rbp - 48]
	mov	qword ptr [rax + 216], 0
.LBB8_449:
	mov	rdx, qword ptr [rbp - 48]
	mov	rdi, qword ptr [rdx + 168]
	mov	rcx, qword ptr [rdx + 176]
	mov	r14d, 1
	xor	eax, eax
	lock		cmpxchg	qword ptr [rdx + 200], r14
	jne	.LBB8_589
.LBB8_450:
	mov	rdx, qword ptr [rbp - 48]
	mov	rdi, qword ptr [rdx + 168]
	mov	rcx, qword ptr [rdx + 176]
	xor	eax, eax
	lock		cmpxchg	qword ptr [rdx + 208], r14
	jne	.LBB8_590
	mov	esi, dword ptr [rbp - 80]
	jmp	.LBB8_573
.LBB8_452:
	mov	rsi, rax
	mov	rdx, rbx
	call	qword ptr [rcx + 96]
	jmp	.LBB8_362
.LBB8_453:
	mov	rsi, rax
	lea	rdx, [rbp - 1792]
.LBB8_454:
	call	qword ptr [rcx + 96]
	jmp	.LBB8_363
.LBB8_455:
	mov	rsi, rax
	mov	rdx, rbx
	vzeroupper
	call	qword ptr [rcx + 80]
	mov	esi, eax
	test	ax, ax
	jne	.LBB8_573
	jmp	.LBB8_369
.LBB8_456:
	mov	r12d, eax
	mov	byte ptr [r13 + 224], 1
	mov	rdi, qword ptr [r13 + 168]
	mov	rcx, qword ptr [r13 + 176]
	mov	edx, 1
	xor	eax, eax
	lock		cmpxchg	qword ptr [r13 + 200], rdx
	jne	.LBB8_596
.LBB8_457:
	mov	rax, qword ptr [rbp - 48]
	lea	r15, [rax + 208]
	mov	rdi, qword ptr [rax + 168]
	mov	rcx, qword ptr [rax + 176]
	mov	rax, qword ptr [rax + 208]
.LBB8_458:
	mov	rdx, rax
	and	rdx, -2
	lock		cmpxchg	qword ptr [r15], rdx
	jne	.LBB8_458
	test	al, 1
	je	.LBB8_597
	test	byte ptr [rbp - 144], 3
	jne	.LBB8_463
.LBB8_461:
	lea	r14, [rbp - 160]
.LBB8_462:
	mov	rax, qword ptr [rbp - 48]
	mov	rdi, qword ptr [rax + 168]
	mov	rax, qword ptr [rax + 176]
	mov	rsi, r14
	mov	rdx, r15
	call	qword ptr [rax + 112]
	test	byte ptr [rbp - 144], 3
	je	.LBB8_462
.LBB8_463:
	mov	rax, qword ptr [rbp - 48]
	mov	rdi, qword ptr [rax + 168]
	mov	rcx, qword ptr [rax + 176]
	mov	rax, qword ptr [rax + 200]
.LBB8_464:
	mov	rdx, rax
	and	rdx, -2
	lock		cmpxchg	qword ptr [rbx], rdx
	jne	.LBB8_464
	test	al, 1
	je	.LBB8_598
.LBB8_466:
	mov	rax, qword ptr [rbp - 48]
	mov	byte ptr [rax + 224], 1
	mov	rsi, qword ptr [rbp - 152]
	test	rsi, rsi
	je	.LBB8_488
	mov	byte ptr [rsi + 16], 2
	mov	rax, qword ptr [rbp - 48]
	mov	rdi, qword ptr [rax + 168]
	mov	rax, qword ptr [rax + 176]
	xor	edx, edx
	call	qword ptr [rax + 120]
	jmp	.LBB8_489
.LBB8_468:
	mov	rsi, rax
	mov	rdx, rbx
	call	qword ptr [rcx + 96]
	jmp	.LBB8_399
.LBB8_469:
	mov	rsi, rax
	mov	rdx, r15
	call	qword ptr [rcx + 80]
	test	ax, ax
	je	.LBB8_402
	mov	r12d, eax
	mov	rdi, qword ptr [r13 + 168]
	mov	rcx, qword ptr [r13 + 176]
	mov	rax, qword ptr [r13 + 208]
.LBB8_471:
	mov	rdx, rax
	and	rdx, -2
	lock		cmpxchg	qword ptr [r15], rdx
	jne	.LBB8_471
	test	al, 1
	je	.LBB8_599
	test	byte ptr [rbp - 144], 3
	jne	.LBB8_476
.LBB8_474:
	lea	r14, [rbp - 160]
.LBB8_475:
	mov	rax, qword ptr [rbp - 48]
	mov	rdi, qword ptr [rax + 168]
	mov	rax, qword ptr [rax + 176]
	mov	rsi, r14
	mov	rdx, r15
	call	qword ptr [rax + 112]
	test	byte ptr [rbp - 144], 3
	je	.LBB8_475
.LBB8_476:
	mov	rax, qword ptr [rbp - 48]
	mov	rdi, qword ptr [rax + 168]
	mov	rcx, qword ptr [rax + 176]
	mov	rax, qword ptr [rax + 200]
.LBB8_477:
	mov	rdx, rax
	and	rdx, -2
	lock		cmpxchg	qword ptr [rbx], rdx
	jne	.LBB8_477
	test	al, 1
	jne	.LBB8_466
.LBB8_598:
	mov	rsi, rax
	mov	rdx, rbx
	call	qword ptr [rcx + 88]
	jmp	.LBB8_466
.LBB8_488:
	mov	rax, qword ptr [rbp - 48]
	mov	qword ptr [rax + 216], 0
.LBB8_489:
	mov	rdx, qword ptr [rbp - 48]
	mov	rdi, qword ptr [rdx + 168]
	mov	rcx, qword ptr [rdx + 176]
	mov	r14d, 1
	xor	eax, eax
	lock		cmpxchg	qword ptr [rdx + 200], r14
	jne	.LBB8_492
.LBB8_490:
	mov	rdx, qword ptr [rbp - 48]
	mov	rdi, qword ptr [rdx + 168]
	mov	rcx, qword ptr [rdx + 176]
	xor	eax, eax
	lock		cmpxchg	qword ptr [rdx + 208], r14
	jne	.LBB8_493
	mov	esi, r12d
	jmp	.LBB8_573
.LBB8_480:
	mov	rsi, rax
	mov	rdx, r15
	call	qword ptr [rcx + 96]
	jmp	.LBB8_406
.LBB8_481:
	mov	rsi, rax
	mov	rdx, r15
	call	qword ptr [rcx + 88]
	test	byte ptr [rbp - 144], 3
	jne	.LBB8_412
	jmp	.LBB8_410
.LBB8_482:
	mov	rsi, rax
	mov	rdx, rbx
	call	qword ptr [rcx + 88]
	mov	byte ptr [r13 + 224], 1
	mov	rsi, qword ptr [rbp - 152]
	test	rsi, rsi
	jne	.LBB8_416
.LBB8_483:
	mov	qword ptr [r13 + 216], 0
.LBB8_484:
	mov	rdi, qword ptr [r13 + 168]
	mov	rcx, qword ptr [r13 + 176]
	mov	r14d, 1
	xor	eax, eax
	lock		cmpxchg	qword ptr [r13 + 200], r14
	jne	.LBB8_487
.LBB8_485:
	mov	rdi, qword ptr [r13 + 168]
	mov	rcx, qword ptr [r13 + 176]
	xor	eax, eax
	lock		cmpxchg	qword ptr [r13 + 208], r14
	mov	si, 21
	je	.LBB8_573
	mov	rsi, rax
	mov	rdx, r15
	jmp	.LBB8_118
.LBB8_487:
	mov	rsi, rax
	mov	rdx, rbx
	call	qword ptr [rcx + 96]
	jmp	.LBB8_485
.LBB8_494:
	mov	rsi, rax
	lea	rdx, [rbp - 1792]
	call	qword ptr [rcx + 88]
	mov	byte ptr [rbp - 1768], 1
	mov	rsi, qword ptr [rbp - 264]
	test	rsi, rsi
	jne	.LBB8_288
.LBB8_495:
	mov	qword ptr [rbp - 1776], 0
.LBB8_496:
	mov	rdi, qword ptr [rbp - 1824]
	mov	rcx, qword ptr [rbp - 1816]
	mov	r14d, 1
	xor	eax, eax
	lock		cmpxchg	qword ptr [rbp - 1792], r14
	mov	esi, r15d
	je	.LBB8_168
.LBB8_497:
	mov	rsi, rax
	lea	rdx, [rbp - 1792]
	call	qword ptr [rcx + 96]
	mov	esi, r15d
	jmp	.LBB8_168
.LBB8_498:
	mov	rsi, rax
	mov	rdx, r15
	call	qword ptr [rcx + 96]
	jmp	.LBB8_419
.LBB8_499:
	mov	rsi, rax
	mov	rdx, r15
	call	qword ptr [rcx + 88]
	test	byte ptr [rbp - 144], 3
	jne	.LBB8_425
	jmp	.LBB8_423
.LBB8_500:
	mov	rsi, rax
	mov	rdx, rbx
	call	qword ptr [rcx + 88]
	mov	byte ptr [r13 + 224], 1
	mov	rsi, qword ptr [rbp - 152]
	test	rsi, rsi
	jne	.LBB8_429
.LBB8_501:
	mov	qword ptr [r13 + 216], 0
.LBB8_502:
	mov	rdi, qword ptr [r13 + 168]
	mov	rcx, qword ptr [r13 + 176]
	mov	r14d, 1
	xor	eax, eax
	lock		cmpxchg	qword ptr [r13 + 200], r14
	jne	.LBB8_505
.LBB8_503:
	mov	rdi, qword ptr [r13 + 168]
	mov	rcx, qword ptr [r13 + 176]
	xor	eax, eax
	lock		cmpxchg	qword ptr [r13 + 208], r14
	je	.LBB8_512
	mov	rsi, rax
	mov	rdx, r15
	jmp	.LBB8_577
.LBB8_505:
	mov	rsi, rax
	mov	rdx, rbx
	call	qword ptr [rcx + 96]
	jmp	.LBB8_503
.LBB8_506:
	mov	rsi, rax
	lea	rdx, [rbp - 1792]
	call	qword ptr [rcx + 96]
	jmp	.LBB8_258
.LBB8_507:
	mov	rsi, rax
	mov	rdx, rbx
	call	qword ptr [rcx + 88]
	test	byte ptr [rbp - 256], 3
	jne	.LBB8_264
	jmp	.LBB8_262
.LBB8_508:
	mov	rsi, rax
	mov	rdx, rbx
	call	qword ptr [rcx + 88]
	mov	rsi, qword ptr [rbp - 152]
	test	rsi, rsi
	jne	.LBB8_434
.LBB8_509:
	mov	qword ptr [r13 + 216], 0
.LBB8_510:
	mov	rdi, qword ptr [r13 + 168]
	mov	rcx, qword ptr [r13 + 176]
	mov	r14d, 1
	xor	eax, eax
	lock		cmpxchg	qword ptr [r13 + 208], r14
	jne	.LBB8_575
.LBB8_511:
	mov	rdi, qword ptr [r13 + 168]
	mov	rcx, qword ptr [r13 + 176]
	xor	eax, eax
	lock		cmpxchg	qword ptr [r13 + 200], r14
	jne	.LBB8_576
.LBB8_512:
	mov	rcx, qword ptr [rbp - 240]
	mov	qword ptr [rbp - 320], rcx
	vmovups	ymm0, ymmword ptr [rbp - 272]
	vmovups	ymmword ptr [rbp - 352], ymm0
	movzx	eax, byte ptr [rbp - 232]
	movzx	esi, word ptr [rbp - 224]
	mov	qword ptr [rbp - 128], rcx
	vmovups	ymmword ptr [rbp - 160], ymm0
	test	si, si
	jne	.LBB8_573
	and	eax, 3
	cmp	eax, 2
	je	.LBB8_527
	cmp	eax, 1
	jne	.LBB8_540
	mov	r14, qword ptr [r13 + 464]
	mov	r15, qword ptr [r13 + 472]
	lea	rdi, [rbp - 400]
	lea	rsi, [rbp - 1824]
	mov	edx, 64
	vzeroupper
	call	debug.lockStderrWriter
	mov	rbx, qword ptr [rbp - 400]
	mov	rdi, rbx
	mov	rsi, r14
	mov	rdx, r15
	call	Io.Writer.alignBufferOptions
	test	ax, ax
	jne	.LBB8_570
	xor	r13d, r13d
	lea	r14, [rip + __anon_10369]
	lea	r15, [rbp - 352]
.LBB8_517:
	lea	rsi, [r14 + r13]
	mov	r12d, 13
	sub	r12, r13
	mov	rdi, qword ptr [rbx + 24]
	lea	rax, [rdi + r12]
	cmp	rax, qword ptr [rbx + 16]
	ja	.LBB8_519
	add	rdi, qword ptr [rbx + 8]
	mov	rdx, r12
	call	memcpy@PLT
	add	qword ptr [rbx + 24], r12
	add	r13, r12
	cmp	r13, 13
	jb	.LBB8_517
	jmp	.LBB8_521
.LBB8_519:
	mov	rax, qword ptr [rbx]
	mov	rax, qword ptr [rax]
	mov	qword ptr [rbp - 352], rsi
	mov	qword ptr [rbp - 344], r12
	mov	ecx, 1
	mov	r8d, 1
	lea	rdi, [rbp - 272]
	mov	rsi, rbx
	mov	rdx, r15
	call	rax
	cmp	word ptr [rbp - 264], 0
	jne	.LBB8_570
	mov	r12, qword ptr [rbp - 272]
	add	r13, r12
	cmp	r13, 13
	jb	.LBB8_517
.LBB8_521:
	lea	rsi, [rip + __anon_2596]
	mov	edx, 3
	mov	rdi, rbx
	call	Io.Writer.alignBufferOptions
	test	ax, ax
	jne	.LBB8_570
	xor	r13d, r13d
	lea	r14, [rip + __anon_10398]
	lea	r15, [rbp - 352]
.LBB8_523:
	lea	rsi, [r14 + r13]
	mov	r12d, 18
	sub	r12, r13
	mov	rdi, qword ptr [rbx + 24]
	lea	rax, [rdi + r12]
	cmp	rax, qword ptr [rbx + 16]
	ja	.LBB8_525
	add	rdi, qword ptr [rbx + 8]
	mov	rdx, r12
	call	memcpy@PLT
	add	qword ptr [rbx + 24], r12
	add	r13, r12
	cmp	r13, 18
	jb	.LBB8_523
	jmp	.LBB8_570
.LBB8_525:
	mov	rax, qword ptr [rbx]
	mov	rax, qword ptr [rax]
	mov	qword ptr [rbp - 352], rsi
	mov	qword ptr [rbp - 344], r12
	mov	ecx, 1
	mov	r8d, 1
	lea	rdi, [rbp - 272]
	mov	rsi, rbx
	mov	rdx, r15
	call	rax
	cmp	word ptr [rbp - 264], 0
	jne	.LBB8_570
	mov	r12, qword ptr [rbp - 272]
	add	r13, r12
	cmp	r13, 18
	jb	.LBB8_523
	jmp	.LBB8_570
.LBB8_527:
	vmovups	ymm0, ymmword ptr [rbp - 160]
	vmovups	ymmword ptr [rbp - 272], ymm0
	mov	rax, qword ptr [rbp - 128]
	mov	qword ptr [rbp - 240], rax
	lea	rdi, [rbp - 264]
	mov	r12, qword ptr [rbp - 272]
	lea	rdx, [rip + __anon_5023]
	mov	ecx, 9
	mov	rsi, r12
	vzeroupper
	call	mem.eql__anon_4857
	mov	r14d, eax
	mov	rax, r13
	mov	r13, qword ptr [r13 + 464]
	mov	r15, qword ptr [rax + 472]
	lea	rdi, [rbp - 112]
	lea	rsi, [rbp - 1824]
	mov	edx, 64
	call	debug.lockStderrWriter
	mov	rbx, qword ptr [rbp - 112]
	mov	rdi, rbx
	mov	rsi, r13
	mov	rdx, r15
	call	Io.Writer.alignBufferOptions
	test	r14b, 1
	je	.LBB8_552
	test	ax, ax
	jne	.LBB8_570
	xor	r13d, r13d
	lea	r14, [rip + __anon_10440]
	lea	r15, [rbp - 400]
.LBB8_530:
	lea	rsi, [r14 + r13]
	mov	r12d, 23
	sub	r12, r13
	mov	rdi, qword ptr [rbx + 24]
	lea	rax, [rdi + r12]
	cmp	rax, qword ptr [rbx + 16]
	ja	.LBB8_532
	add	rdi, qword ptr [rbx + 8]
	mov	rdx, r12
	call	memcpy@PLT
	add	qword ptr [rbx + 24], r12
	add	r13, r12
	cmp	r13, 23
	jb	.LBB8_530
	jmp	.LBB8_534
.LBB8_532:
	mov	rax, qword ptr [rbx]
	mov	rax, qword ptr [rax]
	mov	qword ptr [rbp - 400], rsi
	mov	qword ptr [rbp - 392], r12
	mov	ecx, 1
	mov	r8d, 1
	lea	rdi, [rbp - 352]
	mov	rsi, rbx
	mov	rdx, r15
	call	rax
	cmp	word ptr [rbp - 344], 0
	jne	.LBB8_570
	mov	r12, qword ptr [rbp - 352]
	add	r13, r12
	cmp	r13, 23
	jb	.LBB8_530
.LBB8_534:
	lea	rsi, [rip + __anon_2596]
	mov	edx, 3
	mov	rdi, rbx
	call	Io.Writer.alignBufferOptions
	test	ax, ax
	jne	.LBB8_570
	xor	r13d, r13d
	lea	r14, [rip + __anon_10476]
	lea	r15, [rbp - 400]
.LBB8_536:
	lea	rsi, [r14 + r13]
	mov	r12d, 25
	sub	r12, r13
	mov	rdi, qword ptr [rbx + 24]
	lea	rax, [rdi + r12]
	cmp	rax, qword ptr [rbx + 16]
	ja	.LBB8_538
	add	rdi, qword ptr [rbx + 8]
	mov	rdx, r12
	call	memcpy@PLT
	add	qword ptr [rbx + 24], r12
	add	r13, r12
	cmp	r13, 25
	jb	.LBB8_536
	jmp	.LBB8_570
.LBB8_538:
	mov	rax, qword ptr [rbx]
	mov	rax, qword ptr [rax]
	mov	qword ptr [rbp - 400], rsi
	mov	qword ptr [rbp - 392], r12
	mov	ecx, 1
	mov	r8d, 1
	lea	rdi, [rbp - 352]
	mov	rsi, rbx
	mov	rdx, r15
	call	rax
	cmp	word ptr [rbp - 344], 0
	jne	.LBB8_570
	mov	r12, qword ptr [rbp - 352]
	add	r13, r12
	cmp	r13, 25
	jb	.LBB8_536
	jmp	.LBB8_570
.LBB8_540:
	mov	r14, qword ptr [r13 + 464]
	mov	r15, qword ptr [r13 + 472]
	lea	rdi, [rbp - 400]
	lea	rsi, [rbp - 1824]
	mov	edx, 64
	vzeroupper
	call	debug.lockStderrWriter
	mov	rbx, qword ptr [rbp - 400]
	mov	rdi, rbx
	mov	rsi, r14
	mov	rdx, r15
	call	Io.Writer.alignBufferOptions
	test	ax, ax
	jne	.LBB8_570
	xor	r13d, r13d
	lea	r14, [rip + __anon_10314]
	lea	r15, [rbp - 352]
.LBB8_542:
	lea	rsi, [r14 + r13]
	mov	r12d, 12
	sub	r12, r13
	mov	rdi, qword ptr [rbx + 24]
	lea	rax, [rdi + r12]
	cmp	rax, qword ptr [rbx + 16]
	ja	.LBB8_544
	add	rdi, qword ptr [rbx + 8]
	mov	rdx, r12
	call	memcpy@PLT
	add	qword ptr [rbx + 24], r12
	add	r13, r12
	cmp	r13, 12
	jb	.LBB8_542
	jmp	.LBB8_546
.LBB8_544:
	mov	rax, qword ptr [rbx]
	mov	rax, qword ptr [rax]
	mov	qword ptr [rbp - 352], rsi
	mov	qword ptr [rbp - 344], r12
	mov	ecx, 1
	mov	r8d, 1
	lea	rdi, [rbp - 272]
	mov	rsi, rbx
	mov	rdx, r15
	call	rax
	cmp	word ptr [rbp - 264], 0
	jne	.LBB8_570
	mov	r12, qword ptr [rbp - 272]
	add	r13, r12
	cmp	r13, 12
	jb	.LBB8_542
.LBB8_546:
	lea	rsi, [rip + __anon_2596]
	mov	edx, 3
	mov	rdi, rbx
	call	Io.Writer.alignBufferOptions
	test	ax, ax
	jne	.LBB8_570
	xor	r13d, r13d
	lea	r14, [rip + __anon_10337]
	lea	r15, [rbp - 352]
.LBB8_548:
	lea	rsi, [r14 + r13]
	mov	r12d, 11
	sub	r12, r13
	mov	rdi, qword ptr [rbx + 24]
	lea	rax, [rdi + r12]
	cmp	rax, qword ptr [rbx + 16]
	ja	.LBB8_550
	add	rdi, qword ptr [rbx + 8]
	mov	rdx, r12
	call	memcpy@PLT
	add	qword ptr [rbx + 24], r12
	add	r13, r12
	cmp	r13, 11
	jb	.LBB8_548
	jmp	.LBB8_570
.LBB8_550:
	mov	rax, qword ptr [rbx]
	mov	rax, qword ptr [rax]
	mov	qword ptr [rbp - 352], rsi
	mov	qword ptr [rbp - 344], r12
	mov	ecx, 1
	mov	r8d, 1
	lea	rdi, [rbp - 272]
	mov	rsi, rbx
	mov	rdx, r15
	call	rax
	cmp	word ptr [rbp - 264], 0
	jne	.LBB8_570
	mov	r12, qword ptr [rbp - 272]
	add	r13, r12
	cmp	r13, 11
	jb	.LBB8_548
	jmp	.LBB8_570
.LBB8_552:
	test	ax, ax
	jne	.LBB8_570
	xor	r15d, r15d
	lea	r13, [rip + __anon_10519]
.LBB8_554:
	lea	rsi, [r15 + r13]
	mov	r14d, 13
	sub	r14, r15
	mov	rdi, qword ptr [rbx + 24]
	lea	rax, [rdi + r14]
	cmp	rax, qword ptr [rbx + 16]
	ja	.LBB8_556
	add	rdi, qword ptr [rbx + 8]
	mov	rdx, r14
	call	memcpy@PLT
	add	qword ptr [rbx + 24], r14
	add	r15, r14
	cmp	r15, 13
	jb	.LBB8_554
	jmp	.LBB8_558
.LBB8_556:
	mov	rax, qword ptr [rbx]
	mov	rax, qword ptr [rax]
	mov	qword ptr [rbp - 400], rsi
	mov	qword ptr [rbp - 392], r14
	mov	ecx, 1
	mov	r8d, 1
	lea	rdi, [rbp - 352]
	mov	rsi, rbx
	lea	rdx, [rbp - 400]
	call	rax
	cmp	word ptr [rbp - 344], 0
	jne	.LBB8_570
	mov	r14, qword ptr [rbp - 352]
	add	r15, r14
	cmp	r15, 13
	jb	.LBB8_554
.LBB8_558:
	lea	rsi, [rip + __anon_2596]
	mov	edx, 3
	mov	rdi, rbx
	call	Io.Writer.alignBufferOptions
	test	ax, ax
	jne	.LBB8_570
	xor	r15d, r15d
	lea	r13, [rip + __anon_10558]
.LBB8_560:
	lea	rsi, [r15 + r13]
	mov	r14d, 24
	sub	r14, r15
	mov	rdi, qword ptr [rbx + 24]
	lea	rax, [rdi + r14]
	cmp	rax, qword ptr [rbx + 16]
	ja	.LBB8_562
	add	rdi, qword ptr [rbx + 8]
	mov	rdx, r14
	call	memcpy@PLT
	add	qword ptr [rbx + 24], r14
	add	r15, r14
	cmp	r15, 24
	jb	.LBB8_560
	jmp	.LBB8_564
.LBB8_562:
	mov	rax, qword ptr [rbx]
	mov	rax, qword ptr [rax]
	mov	qword ptr [rbp - 400], rsi
	mov	qword ptr [rbp - 392], r14
	mov	ecx, 1
	mov	r8d, 1
	lea	rdi, [rbp - 352]
	mov	rsi, rbx
	lea	rdx, [rbp - 400]
	call	rax
	cmp	word ptr [rbp - 344], 0
	jne	.LBB8_570
	mov	r14, qword ptr [rbp - 352]
	add	r15, r14
	cmp	r15, 24
	jb	.LBB8_560
.LBB8_564:
	mov	rdi, rbx
	lea	rsi, [rbp - 264]
	mov	rdx, r12
	call	Io.Writer.alignBufferOptions
	test	ax, ax
	jne	.LBB8_570
	lea	r12, [rip + __anon_8151]
	lea	r14, [rbp - 352]
	lea	r15, [rbp - 400]
.LBB8_566:
	mov	rax, qword ptr [rbx + 24]
	cmp	rax, qword ptr [rbx + 16]
	jb	.LBB8_569
	mov	rax, qword ptr [rbx]
	mov	rax, qword ptr [rax]
	mov	qword ptr [rbp - 400], r12
	mov	qword ptr [rbp - 392], 1
	mov	ecx, 1
	mov	r8d, 1
	mov	rdi, r14
	mov	rsi, rbx
	mov	rdx, r15
	call	rax
	cmp	word ptr [rbp - 344], 0
	jne	.LBB8_570
	cmp	qword ptr [rbp - 352], 0
	je	.LBB8_566
	jmp	.LBB8_570
.LBB8_569:
	mov	rcx, qword ptr [rbx + 8]
	mov	byte ptr [rcx + rax], 10
	inc	qword ptr [rbx + 24]
.LBB8_570:
	mov	rax, qword ptr [rip + Progress.stderr_file_writer+8]
	lea	rdi, [rip + Progress.stderr_file_writer+8]
	call	qword ptr [rax + 16]
	movabs	rax, -6148914691236517206
	mov	qword ptr [rip + Progress.stderr_file_writer+16], rax
	vxorps	xmm0, xmm0, xmm0
	vmovups	xmmword ptr [rip + Progress.stderr_file_writer+24], xmm0
	dec	qword ptr [rip + Progress.stderr_mutex]
	jne	.LBB8_572
	mov	dword ptr [rip + Progress.stderr_mutex+12], -1
	xor	eax, eax
	xchg	dword ptr [rip + Progress.stderr_mutex+8], eax
	cmp	eax, 3
	je	.LBB8_574
.LBB8_572:
	xor	esi, esi
	jmp	.LBB8_573
.LBB8_574:
	lea	rdi, [rip + Progress.stderr_mutex+8]
	mov	esi, 1
	call	Thread.Futex.wake
	jmp	.LBB8_572
.LBB8_575:
	mov	rsi, rax
	mov	rdx, r15
	call	qword ptr [rcx + 96]
	jmp	.LBB8_511
.LBB8_576:
	mov	rsi, rax
	mov	rdx, rbx
.LBB8_577:
	call	qword ptr [rcx + 96]
	jmp	.LBB8_512
.LBB8_601:
	mov	rsi, rax
	lea	rdx, [rbp - 1784]
	jmp	.LBB8_170
.LBB8_304:
	mov	rsi, rax
	lea	rdx, [rbp - 1792]
	call	qword ptr [rcx + 96]
	jmp	.LBB8_305
.LBB8_578:
	mov	rsi, rax
	lea	rdx, [rbp - 1792]
	call	qword ptr [rcx + 96]
	jmp	.LBB8_269
.LBB8_579:
	mov	rsi, rax
	mov	rdx, rbx
	call	qword ptr [rcx + 88]
	test	byte ptr [rbp - 256], 3
	jne	.LBB8_275
	jmp	.LBB8_273
.LBB8_580:
	mov	rsi, rax
	lea	rdx, [rbp - 1792]
	call	qword ptr [rcx + 96]
	jmp	.LBB8_278
.LBB8_581:
	mov	rsi, rax
	mov	rdx, rbx
	call	qword ptr [rcx + 88]
	test	byte ptr [rbp - 256], 3
	jne	.LBB8_284
	jmp	.LBB8_282
.LBB8_582:
	mov	rsi, rax
	mov	rdx, rbx
	call	qword ptr [rcx + 88]
	test	byte ptr [rbp - 256], 3
	jne	.LBB8_56
	jmp	.LBB8_54
.LBB8_583:
	mov	rsi, rax
	lea	rdx, [rbp - 1792]
	call	qword ptr [rcx + 96]
	jmp	.LBB8_292
.LBB8_584:
	mov	rsi, rax
	lea	rdx, [rbp - 1784]
	call	qword ptr [rcx + 88]
	test	byte ptr [rbp - 256], 3
	lea	rbx, [rbp - 1784]
	jne	.LBB8_298
	jmp	.LBB8_296
.LBB8_585:
	mov	rsi, rax
	lea	rdx, [rbp - 1784]
	call	qword ptr [rcx + 88]
	test	byte ptr [rbp - 256], 3
	lea	rbx, [rbp - 1784]
	jne	.LBB8_95
	jmp	.LBB8_93
.LBB8_333:
	mov	rsi, rax
	lea	rdx, [rbp - 1792]
	call	qword ptr [rcx + 88]
	mov	byte ptr [rbp - 1768], 1
	mov	rsi, qword ptr [rbp - 104]
	test	rsi, rsi
	jne	.LBB8_99
	jmp	.LBB8_302
.LBB8_586:
	mov	rsi, rax
	mov	rdx, rbx
	call	qword ptr [rcx + 96]
	jmp	.LBB8_437
.LBB8_587:
	mov	rsi, rax
	mov	rdx, r15
	call	qword ptr [rcx + 88]
	test	byte ptr [rbp - 144], 3
	mov	r12, qword ptr [rbp - 48]
	jne	.LBB8_443
	jmp	.LBB8_441
.LBB8_588:
	mov	rsi, rax
	mov	rdx, rbx
	call	qword ptr [rcx + 88]
	jmp	.LBB8_446
.LBB8_589:
	mov	rsi, rax
	mov	rdx, rbx
	call	qword ptr [rcx + 96]
	jmp	.LBB8_450
.LBB8_590:
	mov	rsi, rax
	mov	rdx, r15
	call	qword ptr [rcx + 96]
	mov	esi, dword ptr [rbp - 80]
	jmp	.LBB8_573
.LBB8_591:
	mov	rsi, rax
	lea	rdx, [rbp - 1792]
	call	qword ptr [rcx + 96]
	jmp	.LBB8_324
.LBB8_592:
	mov	rsi, rax
	lea	rdx, [rbp - 1784]
	call	qword ptr [rcx + 88]
	test	byte ptr [rbp - 96], 3
	lea	rbx, [rbp - 1784]
	jne	.LBB8_330
	jmp	.LBB8_328
.LBB8_593:
	mov	rsi, rax
	lea	rdx, [rbp - 1792]
	call	qword ptr [rcx + 96]
	jmp	.LBB8_337
.LBB8_594:
	mov	rsi, rax
	lea	rdx, [rbp - 1784]
	call	qword ptr [rcx + 88]
	test	byte ptr [rbp - 96], 3
	lea	rbx, [rbp - 1784]
	jne	.LBB8_343
	jmp	.LBB8_341
.LBB8_595:
	mov	rsi, rax
	lea	rdx, [rbp - 1784]
	call	qword ptr [rcx + 88]
	test	byte ptr [rbp - 96], 3
	lea	rbx, [rbp - 1784]
	jne	.LBB8_206
	jmp	.LBB8_204
.LBB8_492:
	mov	rsi, rax
	mov	rdx, rbx
	call	qword ptr [rcx + 96]
	jmp	.LBB8_490
.LBB8_493:
	mov	rsi, rax
	mov	rdx, r15
	call	qword ptr [rcx + 96]
	mov	esi, r12d
	jmp	.LBB8_573
.LBB8_596:
	mov	rsi, rax
	mov	rdx, rbx
	call	qword ptr [rcx + 96]
	jmp	.LBB8_457
.LBB8_597:
	mov	rsi, rax
	mov	rdx, r15
	call	qword ptr [rcx + 88]
	test	byte ptr [rbp - 144], 3
	jne	.LBB8_463
	jmp	.LBB8_461
.LBB8_599:
	mov	rsi, rax
	mov	rdx, r15
	call	qword ptr [rcx + 88]
	test	byte ptr [rbp - 144], 3
	jne	.LBB8_476
	jmp	.LBB8_474
.LBB8_600:
	mov	rsi, r14
	mov	rax, qword ptr [r14 + 24]
	mov	r13, qword ptr [rbp - 48]
	lea	rbx, [rbp - 1784]
	jmp	.LBB8_154
.Lfunc_end8:
	.size	lib.API.connect, .Lfunc_end8-lib.API.connect
	.cfi_endproc

	.p2align	4
	.type	serializer.CommandSerializer.serializeArgument__anon_5839,@function
serializer.CommandSerializer.serializeArgument__anon_5839:
	.cfi_startproc
	push	rbp
	.cfi_def_cfa_offset 16
	.cfi_offset rbp, -16
	mov	rbp, rsp
	.cfi_def_cfa_register rbp
	push	r15
	push	r14
	push	r13
	push	r12
	push	rbx
	sub	rsp, 136
	.cfi_offset rbx, -56
	.cfi_offset r12, -48
	.cfi_offset r13, -40
	.cfi_offset r14, -32
	.cfi_offset r15, -24
	mov	rax, qword ptr [rsi + 14]
	mov	qword ptr [rbp - 162], rax
	vmovups	xmm0, xmmword ptr [rsi]
	mov	rbx, rdi
	vmovaps	xmmword ptr [rbp - 176], xmm0
	lea	r12, [rip + __anon_7133]
	lea	r14, [rbp - 144]
	lea	r15, [rbp - 56]
.LBB9_1:
	mov	rax, qword ptr [rbx + 24]
	cmp	rax, qword ptr [rbx + 16]
	jb	.LBB9_2
	mov	rax, qword ptr [rbx]
	mov	rax, qword ptr [rax]
	mov	qword ptr [rbp - 56], r12
	mov	qword ptr [rbp - 48], 1
	mov	ecx, 1
	mov	r8d, 1
	mov	rdi, r14
	mov	rsi, rbx
	mov	rdx, r15
	call	rax
	movzx	eax, word ptr [rbp - 136]
	test	ax, ax
	jne	.LBB9_30
	cmp	qword ptr [rbp - 144], 0
	je	.LBB9_1
	jmp	.LBB9_5
.LBB9_2:
	mov	rcx, qword ptr [rbx + 8]
	mov	byte ptr [rcx + rax], 36
	inc	qword ptr [rbx + 24]
.LBB9_5:
	lea	r13, [rbp - 81]
	mov	word ptr [rbp - 81], 12594
	xor	r14d, r14d
	lea	r15, [rbp - 72]
	.p2align	4
.LBB9_6:
	lea	rsi, [r14 + r13]
	mov	r12d, 2
	sub	r12, r14
	mov	rdi, qword ptr [rbx + 24]
	lea	rax, [rdi + r12]
	cmp	rax, qword ptr [rbx + 16]
	ja	.LBB9_8
	add	rdi, qword ptr [rbx + 8]
	mov	rdx, r12
	call	memcpy@PLT
	add	qword ptr [rbx + 24], r12
	add	r14, r12
	cmp	r14, 2
	jb	.LBB9_6
	jmp	.LBB9_11
.LBB9_8:
	mov	rax, qword ptr [rbx]
	mov	rax, qword ptr [rax]
	mov	qword ptr [rbp - 72], rsi
	mov	qword ptr [rbp - 64], r12
	mov	ecx, 1
	mov	r8d, 1
	lea	rdi, [rbp - 56]
	mov	rsi, rbx
	mov	rdx, r15
	call	rax
	movzx	eax, word ptr [rbp - 48]
	test	ax, ax
	jne	.LBB9_30
	mov	r12, qword ptr [rbp - 56]
	add	r14, r12
	cmp	r14, 2
	jb	.LBB9_6
.LBB9_11:
	xor	r14d, r14d
	lea	r13, [rip + __anon_7106]
	lea	r15, [rbp - 56]
	.p2align	4
.LBB9_12:
	lea	rsi, [r14 + r13]
	mov	r12d, 2
	sub	r12, r14
	mov	rdi, qword ptr [rbx + 24]
	lea	rax, [rdi + r12]
	cmp	rax, qword ptr [rbx + 16]
	ja	.LBB9_14
	add	rdi, qword ptr [rbx + 8]
	mov	rdx, r12
	call	memcpy@PLT
	add	qword ptr [rbx + 24], r12
	add	r14, r12
	cmp	r14, 2
	jb	.LBB9_12
	jmp	.LBB9_17
.LBB9_14:
	mov	rax, qword ptr [rbx]
	mov	rax, qword ptr [rax]
	mov	qword ptr [rbp - 56], rsi
	mov	qword ptr [rbp - 48], r12
	mov	ecx, 1
	mov	r8d, 1
	lea	rdi, [rbp - 144]
	mov	rsi, rbx
	mov	rdx, r15
	call	rax
	movzx	eax, word ptr [rbp - 136]
	test	ax, ax
	jne	.LBB9_30
	mov	r12, qword ptr [rbp - 144]
	add	r14, r12
	cmp	r14, 2
	jb	.LBB9_12
.LBB9_17:
	mov	rax, qword ptr [rbp - 162]
	vmovaps	xmm0, xmmword ptr [rbp - 176]
	mov	qword ptr [rbp - 130], rax
	vmovaps	xmmword ptr [rbp - 144], xmm0
	xor	r14d, r14d
	lea	r15, [rbp - 72]
	.p2align	4
.LBB9_18:
	lea	rsi, [r14 + rbp]
	add	rsi, -144
	mov	r12d, 21
	sub	r12, r14
	mov	rdi, qword ptr [rbx + 24]
	lea	rax, [rdi + r12]
	cmp	rax, qword ptr [rbx + 16]
	ja	.LBB9_20
	add	rdi, qword ptr [rbx + 8]
	mov	rdx, r12
	call	memcpy@PLT
	add	qword ptr [rbx + 24], r12
	add	r14, r12
	cmp	r14, 21
	jb	.LBB9_18
	jmp	.LBB9_23
.LBB9_20:
	mov	rax, qword ptr [rbx]
	mov	rax, qword ptr [rax]
	mov	qword ptr [rbp - 72], rsi
	mov	qword ptr [rbp - 64], r12
	mov	ecx, 1
	mov	r8d, 1
	lea	rdi, [rbp - 56]
	mov	rsi, rbx
	mov	rdx, r15
	call	rax
	movzx	eax, word ptr [rbp - 48]
	test	ax, ax
	jne	.LBB9_30
	mov	r12, qword ptr [rbp - 56]
	add	r14, r12
	cmp	r14, 21
	jb	.LBB9_18
.LBB9_23:
	xor	r14d, r14d
	lea	r15, [rbp - 56]
	.p2align	4
.LBB9_24:
	lea	rsi, [r14 + r13]
	mov	r12d, 2
	sub	r12, r14
	mov	rdi, qword ptr [rbx + 24]
	lea	rax, [rdi + r12]
	cmp	rax, qword ptr [rbx + 16]
	ja	.LBB9_26
	add	rdi, qword ptr [rbx + 8]
	mov	rdx, r12
	call	memcpy@PLT
	add	qword ptr [rbx + 24], r12
	add	r14, r12
	cmp	r14, 2
	jb	.LBB9_24
	jmp	.LBB9_29
.LBB9_26:
	mov	rax, qword ptr [rbx]
	mov	rax, qword ptr [rax]
	mov	qword ptr [rbp - 56], rsi
	mov	qword ptr [rbp - 48], r12
	mov	ecx, 1
	mov	r8d, 1
	lea	rdi, [rbp - 144]
	mov	rsi, rbx
	mov	rdx, r15
	call	rax
	movzx	eax, word ptr [rbp - 136]
	test	ax, ax
	jne	.LBB9_30
	mov	r12, qword ptr [rbp - 144]
	add	r14, r12
	cmp	r14, 2
	jb	.LBB9_24
.LBB9_29:
	xor	eax, eax
.LBB9_30:
	add	rsp, 136
	pop	rbx
	pop	r12
	pop	r13
	pop	r14
	pop	r15
	pop	rbp
	.cfi_def_cfa rsp, 8
	ret
.Lfunc_end9:
	.size	serializer.CommandSerializer.serializeArgument__anon_5839, .Lfunc_end9-serializer.CommandSerializer.serializeArgument__anon_5839
	.cfi_endproc

	.p2align	4
	.type	serializer.CommandSerializer.serializeArgument__anon_5849,@function
serializer.CommandSerializer.serializeArgument__anon_5849:
	.cfi_startproc
	push	rbp
	.cfi_def_cfa_offset 16
	.cfi_offset rbp, -16
	mov	rbp, rsp
	.cfi_def_cfa_register rbp
	push	r15
	push	r14
	push	r13
	push	r12
	push	rbx
	sub	rsp, 136
	.cfi_offset rbx, -56
	.cfi_offset r12, -48
	.cfi_offset r13, -40
	.cfi_offset r14, -32
	.cfi_offset r15, -24
	mov	rax, qword ptr [rsi + 13]
	mov	qword ptr [rbp - 163], rax
	vmovups	xmm0, xmmword ptr [rsi]
	mov	rbx, rdi
	vmovaps	xmmword ptr [rbp - 176], xmm0
	lea	r12, [rip + __anon_7133]
	lea	r14, [rbp - 144]
	lea	r15, [rbp - 56]
.LBB10_1:
	mov	rax, qword ptr [rbx + 24]
	cmp	rax, qword ptr [rbx + 16]
	jb	.LBB10_2
	mov	rax, qword ptr [rbx]
	mov	rax, qword ptr [rax]
	mov	qword ptr [rbp - 56], r12
	mov	qword ptr [rbp - 48], 1
	mov	ecx, 1
	mov	r8d, 1
	mov	rdi, r14
	mov	rsi, rbx
	mov	rdx, r15
	call	rax
	movzx	eax, word ptr [rbp - 136]
	test	ax, ax
	jne	.LBB10_30
	cmp	qword ptr [rbp - 144], 0
	je	.LBB10_1
	jmp	.LBB10_5
.LBB10_2:
	mov	rcx, qword ptr [rbx + 8]
	mov	byte ptr [rcx + rax], 36
	inc	qword ptr [rbx + 24]
.LBB10_5:
	lea	r13, [rbp - 81]
	mov	word ptr [rbp - 81], 12594
	xor	r14d, r14d
	lea	r15, [rbp - 72]
	.p2align	4
.LBB10_6:
	lea	rsi, [r14 + r13]
	mov	r12d, 2
	sub	r12, r14
	mov	rdi, qword ptr [rbx + 24]
	lea	rax, [rdi + r12]
	cmp	rax, qword ptr [rbx + 16]
	ja	.LBB10_8
	add	rdi, qword ptr [rbx + 8]
	mov	rdx, r12
	call	memcpy@PLT
	add	qword ptr [rbx + 24], r12
	add	r14, r12
	cmp	r14, 2
	jb	.LBB10_6
	jmp	.LBB10_11
.LBB10_8:
	mov	rax, qword ptr [rbx]
	mov	rax, qword ptr [rax]
	mov	qword ptr [rbp - 72], rsi
	mov	qword ptr [rbp - 64], r12
	mov	ecx, 1
	mov	r8d, 1
	lea	rdi, [rbp - 56]
	mov	rsi, rbx
	mov	rdx, r15
	call	rax
	movzx	eax, word ptr [rbp - 48]
	test	ax, ax
	jne	.LBB10_30
	mov	r12, qword ptr [rbp - 56]
	add	r14, r12
	cmp	r14, 2
	jb	.LBB10_6
.LBB10_11:
	xor	r14d, r14d
	lea	r13, [rip + __anon_7106]
	lea	r15, [rbp - 56]
	.p2align	4
.LBB10_12:
	lea	rsi, [r14 + r13]
	mov	r12d, 2
	sub	r12, r14
	mov	rdi, qword ptr [rbx + 24]
	lea	rax, [rdi + r12]
	cmp	rax, qword ptr [rbx + 16]
	ja	.LBB10_14
	add	rdi, qword ptr [rbx + 8]
	mov	rdx, r12
	call	memcpy@PLT
	add	qword ptr [rbx + 24], r12
	add	r14, r12
	cmp	r14, 2
	jb	.LBB10_12
	jmp	.LBB10_17
.LBB10_14:
	mov	rax, qword ptr [rbx]
	mov	rax, qword ptr [rax]
	mov	qword ptr [rbp - 56], rsi
	mov	qword ptr [rbp - 48], r12
	mov	ecx, 1
	mov	r8d, 1
	lea	rdi, [rbp - 144]
	mov	rsi, rbx
	mov	rdx, r15
	call	rax
	movzx	eax, word ptr [rbp - 136]
	test	ax, ax
	jne	.LBB10_30
	mov	r12, qword ptr [rbp - 144]
	add	r14, r12
	cmp	r14, 2
	jb	.LBB10_12
.LBB10_17:
	mov	rax, qword ptr [rbp - 163]
	vmovaps	xmm0, xmmword ptr [rbp - 176]
	mov	qword ptr [rbp - 131], rax
	vmovaps	xmmword ptr [rbp - 144], xmm0
	xor	r14d, r14d
	lea	r15, [rbp - 72]
	.p2align	4
.LBB10_18:
	lea	rsi, [r14 + rbp]
	add	rsi, -144
	mov	r12d, 21
	sub	r12, r14
	mov	rdi, qword ptr [rbx + 24]
	lea	rax, [rdi + r12]
	cmp	rax, qword ptr [rbx + 16]
	ja	.LBB10_20
	add	rdi, qword ptr [rbx + 8]
	mov	rdx, r12
	call	memcpy@PLT
	add	qword ptr [rbx + 24], r12
	add	r14, r12
	cmp	r14, 21
	jb	.LBB10_18
	jmp	.LBB10_23
.LBB10_20:
	mov	rax, qword ptr [rbx]
	mov	rax, qword ptr [rax]
	mov	qword ptr [rbp - 72], rsi
	mov	qword ptr [rbp - 64], r12
	mov	ecx, 1
	mov	r8d, 1
	lea	rdi, [rbp - 56]
	mov	rsi, rbx
	mov	rdx, r15
	call	rax
	movzx	eax, word ptr [rbp - 48]
	test	ax, ax
	jne	.LBB10_30
	mov	r12, qword ptr [rbp - 56]
	add	r14, r12
	cmp	r14, 21
	jb	.LBB10_18
.LBB10_23:
	xor	r14d, r14d
	lea	r15, [rbp - 56]
	.p2align	4
.LBB10_24:
	lea	rsi, [r14 + r13]
	mov	r12d, 2
	sub	r12, r14
	mov	rdi, qword ptr [rbx + 24]
	lea	rax, [rdi + r12]
	cmp	rax, qword ptr [rbx + 16]
	ja	.LBB10_26
	add	rdi, qword ptr [rbx + 8]
	mov	rdx, r12
	call	memcpy@PLT
	add	qword ptr [rbx + 24], r12
	add	r14, r12
	cmp	r14, 2
	jb	.LBB10_24
	jmp	.LBB10_29
.LBB10_26:
	mov	rax, qword ptr [rbx]
	mov	rax, qword ptr [rax]
	mov	qword ptr [rbp - 56], rsi
	mov	qword ptr [rbp - 48], r12
	mov	ecx, 1
	mov	r8d, 1
	lea	rdi, [rbp - 144]
	mov	rsi, rbx
	mov	rdx, r15
	call	rax
	movzx	eax, word ptr [rbp - 136]
	test	ax, ax
	jne	.LBB10_30
	mov	r12, qword ptr [rbp - 144]
	add	r14, r12
	cmp	r14, 2
	jb	.LBB10_24
.LBB10_29:
	xor	eax, eax
.LBB10_30:
	add	rsp, 136
	pop	rbx
	pop	r12
	pop	r13
	pop	r14
	pop	r15
	pop	rbp
	.cfi_def_cfa rsp, 8
	ret
.Lfunc_end10:
	.size	serializer.CommandSerializer.serializeArgument__anon_5849, .Lfunc_end10-serializer.CommandSerializer.serializeArgument__anon_5849
	.cfi_endproc

	.p2align	4
	.type	parser.RESP3Parser.parse__anon_6007,@function
parser.RESP3Parser.parse__anon_6007:
	.cfi_startproc
	push	rbp
	.cfi_def_cfa_offset 16
	.cfi_offset rbp, -16
	mov	rbp, rsp
	.cfi_def_cfa_register rbp
	push	r15
	push	r14
	push	r13
	push	r12
	push	rbx
	sub	rsp, 88
	.cfi_offset rbx, -56
	.cfi_offset r12, -48
	.cfi_offset r13, -40
	.cfi_offset r14, -32
	.cfi_offset r15, -24
	mov	r14, rsi
	mov	rbx, rdi
	mov	rax, qword ptr [rsi + 24]
	cmp	rax, qword ptr [rsi + 32]
	jae	.LBB11_39
.LBB11_1:
	mov	rcx, qword ptr [r14 + 8]
	movzx	edx, byte ptr [rcx + rax]
	inc	rax
	mov	qword ptr [r14 + 24], rax
	cmp	dl, 124
	jne	.LBB11_5
	mov	edi, 37
	mov	rsi, r14
	call	parser.void.VoidParser.discardOne
	test	ax, ax
	jne	.LBB11_36
	mov	rax, qword ptr [r14 + 24]
	cmp	rax, qword ptr [r14 + 32]
	jae	.LBB11_41
.LBB11_4:
	mov	rcx, qword ptr [r14 + 8]
	movzx	edx, byte ptr [rcx + rax]
	inc	rax
	mov	qword ptr [r14 + 24], rax
.LBB11_5:
	movzx	edi, dl
	lea	edx, [rdi - 33]
	cmp	edx, 93
	ja	.LBB11_80
	lea	rsi, [rip + .LJTI11_0]
	movsxd	rdx, dword ptr [rsi + 4*rdx]
	add	rdx, rsi
	jmp	rdx
.LBB11_7:
	mov	ax, 100
	jmp	.LBB11_36
.LBB11_8:
	lea	rdi, [rbp - 72]
	mov	rsi, r14
	call	Io.Reader.takeSentinel__anon_7337
	movzx	eax, word ptr [rbp - 56]
	test	ax, ax
	jne	.LBB11_36
	mov	rsi, qword ptr [rbp - 72]
	mov	rdx, qword ptr [rbp - 64]
	lea	rdi, [rbp - 120]
	call	fmt.parseInt__anon_7341
	movzx	eax, word ptr [rbp - 112]
	test	ax, ax
	jne	.LBB11_36
	mov	rdx, qword ptr [rbp - 120]
	mov	rax, qword ptr [r14 + 24]
	mov	rcx, qword ptr [r14 + 32]
	inc	rax
	mov	r15, rax
	sub	r15, rcx
	ja	.LBB11_43
	mov	qword ptr [r14 + 24], rax
.LBB11_12:
	mov	rsi, qword ptr [r14 + 24]
	mov	rax, qword ptr [r14 + 32]
	lea	rcx, [rsi + rdx]
	cmp	rcx, rax
	ja	.LBB11_46
.LBB11_13:
	add	rsi, qword ptr [r14 + 8]
	add	rcx, 2
	mov	r15, rcx
	sub	r15, rax
	ja	.LBB11_48
	mov	qword ptr [r14 + 24], rcx
.LBB11_15:
	lea	rdi, [rbp - 104]
	call	fmt.parseInt__anon_7793
	movzx	eax, word ptr [rbp - 96]
	mov	r13, qword ptr [rbp - 104]
	jmp	.LBB11_37
.LBB11_16:
	lea	rdi, [rbp - 72]
	mov	rsi, r14
	call	Io.Reader.takeSentinel__anon_7337
	movzx	eax, word ptr [rbp - 56]
	test	ax, ax
	jne	.LBB11_36
	mov	rsi, qword ptr [rbp - 72]
	mov	rdx, qword ptr [rbp - 64]
	lea	rdi, [rbp - 104]
	call	fmt.parseInt__anon_7793
	movzx	eax, word ptr [rbp - 96]
	test	ax, ax
	jne	.LBB11_36
	mov	r13, qword ptr [rbp - 104]
	mov	rax, qword ptr [r14 + 24]
	mov	rcx, qword ptr [r14 + 32]
	inc	rax
	mov	r15, rax
	sub	r15, rcx
	ja	.LBB11_66
	mov	qword ptr [r14 + 24], rax
	jmp	.LBB11_32
.LBB11_20:
	mov	edi, 36
	jmp	.LBB11_34
.LBB11_21:
	lea	rdi, [rbp - 72]
	mov	rsi, r14
	call	Io.Reader.takeSentinel__anon_7337
	movzx	eax, word ptr [rbp - 56]
	test	ax, ax
	jne	.LBB11_36
	mov	rsi, qword ptr [rbp - 72]
	mov	rdx, qword ptr [rbp - 64]
	lea	rdi, [rbp - 104]
	call	fmt.parseInt__anon_7793
	mov	rax, qword ptr [r14 + 24]
	mov	rcx, qword ptr [r14 + 32]
	inc	rax
	mov	r15, rax
	sub	r15, rcx
	ja	.LBB11_60
	mov	qword ptr [r14 + 24], rax
.LBB11_24:
	mov	r13, qword ptr [rbp - 104]
	movzx	eax, word ptr [rbp - 96]
	jmp	.LBB11_37
.LBB11_25:
	add	rax, 2
	mov	rcx, qword ptr [r14 + 32]
	mov	r15, rax
	sub	r15, rcx
	ja	.LBB11_55
	mov	qword ptr [r14 + 24], rax
.LBB11_27:
	mov	word ptr [rbp - 44], 0
	mov	dword ptr [rbp - 48], 0
	mov	ax, 99
	jmp	.LBB11_36
.LBB11_28:
	mov	rdx, qword ptr [r14 + 32]
	cmp	rax, rdx
	jae	.LBB11_58
.LBB11_29:
	movzx	r12d, byte ptr [rcx + rax]
	add	rax, 3
	mov	r15, rax
	sub	r15, rdx
	ja	.LBB11_63
	mov	qword ptr [r14 + 24], rax
.LBB11_31:
	xor	r13d, r13d
	cmp	r12b, 116
	sete	r13b
.LBB11_32:
	xor	eax, eax
	jmp	.LBB11_37
.LBB11_33:
	mov	edi, 43
.LBB11_34:
	mov	rsi, r14
	call	parser.void.VoidParser.discardOne
	test	ax, ax
	jne	.LBB11_36
	mov	word ptr [rbp - 44], 0
	mov	dword ptr [rbp - 48], 0
	mov	ax, 97
.LBB11_36:
.LBB11_37:
	mov	qword ptr [rbx], r13
	mov	word ptr [rbx + 8], ax
	mov	eax, dword ptr [rbp - 48]
	mov	dword ptr [rbx + 10], eax
	movzx	eax, word ptr [rbp - 44]
	mov	word ptr [rbx + 14], ax
.LBB11_38:
	add	rsp, 88
	pop	rbx
	pop	r12
	pop	r13
	pop	r14
	pop	r15
	pop	rbp
	.cfi_def_cfa rsp, 8
	ret
.LBB11_39:
	.cfi_def_cfa rbp, 16
	mov	esi, 1
	mov	rdi, r14
	call	Io.Reader.fillUnbuffered
	test	ax, ax
	je	.LBB11_81
	mov	word ptr [rbx + 8], ax
	jmp	.LBB11_38
.LBB11_41:
	mov	esi, 1
	mov	rdi, r14
	call	Io.Reader.fillUnbuffered
	test	ax, ax
	jne	.LBB11_36
	mov	rax, qword ptr [r14 + 24]
	jmp	.LBB11_4
.LBB11_43:
	mov	qword ptr [r14 + 24], rcx
	lea	r12, [rbp - 88]
.LBB11_44:
	mov	r13, rdx
	mov	rax, qword ptr [r14]
	mov	rdi, r12
	mov	rsi, r14
	mov	rdx, r15
	call	qword ptr [rax + 8]
	movzx	eax, word ptr [rbp - 80]
	test	eax, eax
	jne	.LBB11_51
	sub	r15, qword ptr [rbp - 88]
	mov	rdx, r13
	jne	.LBB11_44
	jmp	.LBB11_12
.LBB11_46:
	mov	rdi, r14
	mov	rsi, rdx
	mov	r15, rdx
	call	Io.Reader.fillUnbuffered
	test	ax, ax
	jne	.LBB11_36
	mov	rdx, r15
	mov	rsi, qword ptr [r14 + 24]
	mov	rax, qword ptr [r14 + 32]
	lea	rcx, [rsi + r15]
	jmp	.LBB11_13
.LBB11_48:
	mov	qword ptr [r14 + 24], rax
.LBB11_49:
	mov	r13, rsi
	mov	r12, rdx
	mov	rax, qword ptr [r14]
	lea	rdi, [rbp - 88]
	mov	rsi, r14
	mov	rdx, r15
	call	qword ptr [rax + 8]
	movzx	eax, word ptr [rbp - 80]
	test	eax, eax
	jne	.LBB11_53
	sub	r15, qword ptr [rbp - 88]
	mov	rdx, r12
	mov	rsi, r13
	jne	.LBB11_49
	jmp	.LBB11_15
.LBB11_51:
	cmp	eax, 6
	je	.LBB11_54
	mov	ax, 7
	cmp	r15, 1
	mov	rdx, r13
	jne	.LBB11_12
	jmp	.LBB11_36
.LBB11_53:
	cmp	eax, 6
	je	.LBB11_54
	mov	ax, 7
	test	r15, r15
	mov	rdx, r12
	mov	rsi, r13
	jne	.LBB11_36
	jmp	.LBB11_15
.LBB11_55:
	mov	qword ptr [r14 + 24], rcx
	lea	r12, [rbp - 72]
.LBB11_56:
	mov	rax, qword ptr [r14]
	mov	rdi, r12
	mov	rsi, r14
	mov	rdx, r15
	call	qword ptr [rax + 8]
	movzx	eax, word ptr [rbp - 64]
	test	eax, eax
	jne	.LBB11_69
	sub	r15, qword ptr [rbp - 72]
	jne	.LBB11_56
	jmp	.LBB11_27
.LBB11_58:
	mov	esi, 1
	mov	rdi, r14
	call	Io.Reader.fillUnbuffered
	test	ax, ax
	jne	.LBB11_36
	mov	rcx, qword ptr [r14 + 8]
	mov	rax, qword ptr [r14 + 24]
	mov	rdx, qword ptr [r14 + 32]
	jmp	.LBB11_29
.LBB11_60:
	mov	qword ptr [r14 + 24], rcx
	lea	r12, [rbp - 88]
.LBB11_61:
	mov	rax, qword ptr [r14]
	mov	rdi, r12
	mov	rsi, r14
	mov	rdx, r15
	call	qword ptr [rax + 8]
	movzx	eax, word ptr [rbp - 80]
	test	eax, eax
	jne	.LBB11_71
	sub	r15, qword ptr [rbp - 88]
	jne	.LBB11_61
	jmp	.LBB11_24
.LBB11_63:
	mov	qword ptr [r14 + 24], rdx
	lea	r13, [rbp - 72]
.LBB11_64:
	mov	rax, qword ptr [r14]
	mov	rdi, r13
	mov	rsi, r14
	mov	rdx, r15
	call	qword ptr [rax + 8]
	movzx	eax, word ptr [rbp - 64]
	test	eax, eax
	jne	.LBB11_73
	sub	r15, qword ptr [rbp - 72]
	jne	.LBB11_64
	jmp	.LBB11_31
.LBB11_66:
	mov	qword ptr [r14 + 24], rcx
	lea	r12, [rbp - 88]
.LBB11_67:
	mov	rax, qword ptr [r14]
	mov	rdi, r12
	mov	rsi, r14
	mov	rdx, r15
	call	qword ptr [rax + 8]
	movzx	eax, word ptr [rbp - 80]
	test	eax, eax
	jne	.LBB11_75
	sub	r15, qword ptr [rbp - 88]
	jne	.LBB11_67
	jmp	.LBB11_32
.LBB11_69:
	cmp	eax, 6
	je	.LBB11_54
	test	r15, r15
	jne	.LBB11_79
	jmp	.LBB11_27
.LBB11_71:
	cmp	eax, 6
	je	.LBB11_54
	mov	ax, 7
	cmp	r15, 1
	jne	.LBB11_24
	jmp	.LBB11_36
.LBB11_73:
	cmp	eax, 6
	je	.LBB11_54
	test	r15, r15
	je	.LBB11_31
.LBB11_79:
	mov	ax, 7
	jmp	.LBB11_36
.LBB11_75:
	cmp	eax, 6
	jne	.LBB11_76
.LBB11_54:
	mov	ax, 6
	jmp	.LBB11_36
.LBB11_76:
	mov	ax, 7
	cmp	r15, 1
	jne	.LBB11_32
	jmp	.LBB11_36
.LBB11_80:
	call	debug.panic__anon_7965
.LBB11_81:
	mov	rax, qword ptr [r14 + 24]
	jmp	.LBB11_1
.Lfunc_end11:
	.size	parser.RESP3Parser.parse__anon_6007, .Lfunc_end11-parser.RESP3Parser.parse__anon_6007
	.cfi_endproc
	.section	.rodata,"a",@progbits
	.p2align	2, 0x0
.LJTI11_0:
	.long	.LBB11_20-.LJTI11_0
	.long	.LBB11_80-.LJTI11_0
	.long	.LBB11_28-.LJTI11_0
	.long	.LBB11_8-.LJTI11_0
	.long	.LBB11_7-.LJTI11_0
	.long	.LBB11_80-.LJTI11_0
	.long	.LBB11_80-.LJTI11_0
	.long	.LBB11_7-.LJTI11_0
	.long	.LBB11_80-.LJTI11_0
	.long	.LBB11_7-.LJTI11_0
	.long	.LBB11_21-.LJTI11_0
	.long	.LBB11_7-.LJTI11_0
	.long	.LBB11_33-.LJTI11_0
	.long	.LBB11_80-.LJTI11_0
	.long	.LBB11_80-.LJTI11_0
	.long	.LBB11_80-.LJTI11_0
	.long	.LBB11_80-.LJTI11_0
	.long	.LBB11_80-.LJTI11_0
	.long	.LBB11_80-.LJTI11_0
	.long	.LBB11_80-.LJTI11_0
	.long	.LBB11_80-.LJTI11_0
	.long	.LBB11_80-.LJTI11_0
	.long	.LBB11_80-.LJTI11_0
	.long	.LBB11_80-.LJTI11_0
	.long	.LBB11_80-.LJTI11_0
	.long	.LBB11_16-.LJTI11_0
	.long	.LBB11_80-.LJTI11_0
	.long	.LBB11_80-.LJTI11_0
	.long	.LBB11_8-.LJTI11_0
	.long	.LBB11_80-.LJTI11_0
	.long	.LBB11_80-.LJTI11_0
	.long	.LBB11_80-.LJTI11_0
	.long	.LBB11_80-.LJTI11_0
	.long	.LBB11_80-.LJTI11_0
	.long	.LBB11_80-.LJTI11_0
	.long	.LBB11_80-.LJTI11_0
	.long	.LBB11_80-.LJTI11_0
	.long	.LBB11_80-.LJTI11_0
	.long	.LBB11_80-.LJTI11_0
	.long	.LBB11_80-.LJTI11_0
	.long	.LBB11_80-.LJTI11_0
	.long	.LBB11_80-.LJTI11_0
	.long	.LBB11_80-.LJTI11_0
	.long	.LBB11_80-.LJTI11_0
	.long	.LBB11_80-.LJTI11_0
	.long	.LBB11_80-.LJTI11_0
	.long	.LBB11_80-.LJTI11_0
	.long	.LBB11_80-.LJTI11_0
	.long	.LBB11_80-.LJTI11_0
	.long	.LBB11_80-.LJTI11_0
	.long	.LBB11_80-.LJTI11_0
	.long	.LBB11_80-.LJTI11_0
	.long	.LBB11_80-.LJTI11_0
	.long	.LBB11_80-.LJTI11_0
	.long	.LBB11_80-.LJTI11_0
	.long	.LBB11_80-.LJTI11_0
	.long	.LBB11_80-.LJTI11_0
	.long	.LBB11_80-.LJTI11_0
	.long	.LBB11_80-.LJTI11_0
	.long	.LBB11_80-.LJTI11_0
	.long	.LBB11_80-.LJTI11_0
	.long	.LBB11_80-.LJTI11_0
	.long	.LBB11_25-.LJTI11_0
	.long	.LBB11_80-.LJTI11_0
	.long	.LBB11_80-.LJTI11_0
	.long	.LBB11_80-.LJTI11_0
	.long	.LBB11_80-.LJTI11_0
	.long	.LBB11_80-.LJTI11_0
	.long	.LBB11_80-.LJTI11_0
	.long	.LBB11_80-.LJTI11_0
	.long	.LBB11_80-.LJTI11_0
	.long	.LBB11_80-.LJTI11_0
	.long	.LBB11_80-.LJTI11_0
	.long	.LBB11_80-.LJTI11_0
	.long	.LBB11_80-.LJTI11_0
	.long	.LBB11_80-.LJTI11_0
	.long	.LBB11_80-.LJTI11_0
	.long	.LBB11_80-.LJTI11_0
	.long	.LBB11_80-.LJTI11_0
	.long	.LBB11_80-.LJTI11_0
	.long	.LBB11_80-.LJTI11_0
	.long	.LBB11_80-.LJTI11_0
	.long	.LBB11_80-.LJTI11_0
	.long	.LBB11_80-.LJTI11_0
	.long	.LBB11_80-.LJTI11_0
	.long	.LBB11_80-.LJTI11_0
	.long	.LBB11_80-.LJTI11_0
	.long	.LBB11_80-.LJTI11_0
	.long	.LBB11_80-.LJTI11_0
	.long	.LBB11_80-.LJTI11_0
	.long	.LBB11_80-.LJTI11_0
	.long	.LBB11_80-.LJTI11_0
	.long	.LBB11_80-.LJTI11_0
	.long	.LBB11_7-.LJTI11_0

	.section	.rodata.cst16,"aM",@progbits,16
	.p2align	4, 0x0
.LCPI12_0:
	.long	1
	.long	4294967295
	.zero	4
	.zero	4
	.section	.rodata.cst32,"aM",@progbits,32
	.p2align	5, 0x0
.LCPI12_1:
	.quad	-2691343689449507777
	.quad	8709371129873690708
	.quad	4354685564936845354
	.quad	-7046029254386353131
	.section	.rodata.cst8,"aM",@progbits,8
	.p2align	3, 0x0
.LCPI12_2:
	.quad	-4658895280553007687
.LCPI12_3:
	.quad	-7723592293110705685
	.text
	.p2align	4
	.type	main.main,@function
main.main:
	.cfi_startproc
	push	rbp
	.cfi_def_cfa_offset 16
	.cfi_offset rbp, -16
	mov	rbp, rsp
	.cfi_def_cfa_register rbp
	push	r15
	push	r14
	push	r13
	push	r12
	push	rbx
	sub	rsp, 3944
	.cfi_offset rbx, -56
	.cfi_offset r12, -48
	.cfi_offset r13, -40
	.cfi_offset r14, -32
	.cfi_offset r15, -24
	vxorps	xmm0, xmm0, xmm0
	vmovaps	xmmword ptr [rbp - 400], xmm0
	vmovups	xmm0, xmmword ptr [rip + .L__unnamed_8]
	vmovaps	xmmword ptr [rbp - 384], xmm0
	vmovups	xmm0, xmmword ptr [rbp - 400]
	vmovups	xmmword ptr [rbp - 208], xmm0
	vmovdqu	xmm0, xmmword ptr [rbp - 384]
	vmovdqu	xmmword ptr [rbp - 192], xmm0
	mov	rax, qword ptr [rip + environ@GOTPCREL]
	mov	rax, qword ptr [rax]
	mov	r12, qword ptr [rax]
	test	r12, r12
	je	.LBB12_104
	lea	r14, [rip + .L__unnamed_9]
	jmp	.LBB12_4
	.p2align	4
.LBB12_2:
	mov	rdi, r12
	mov	rsi, qword ptr [rbp - 80]
	mov	rbx, qword ptr [rbp - 48]
	mov	rdx, rbx
	vzeroupper
	call	memcpy@PLT
	mov	qword ptr [r14], r12
	mov	qword ptr [r14 + 8], rbx
.LBB12_3:
	mov	rax, qword ptr [rbp - 232]
	mov	qword ptr [r13], rax
	mov	rax, qword ptr [rbp - 72]
	mov	qword ptr [r13 + 8], rax
	mov	rax, qword ptr [rbp - 56]
	mov	r12, qword ptr [rax + 8]
	add	rax, 8
	test	r12, r12
	lea	r14, [rip + .L__unnamed_9]
	je	.LBB12_104
.LBB12_4:
	mov	qword ptr [rbp - 56], rax
	mov	rbx, -32
	xor	ecx, ecx
	movzx	eax, byte ptr [r12 + rbx + 32]
	test	eax, eax
	je	.LBB12_7
	.p2align	4
.LBB12_5:
	cmp	eax, 61
	je	.LBB12_7
	inc	rcx
	inc	rbx
	movzx	eax, byte ptr [r12 + rbx + 32]
	test	eax, eax
	jne	.LBB12_5
.LBB12_7:
	mov	qword ptr [rbp - 224], rcx
	lea	rdi, [r12 + rbx]
	add	rdi, 32
	vzeroupper
	call	strlen@PLT
	mov	r13, rax
	lea	rcx, [rbx + 32]
	mov	rdx, rcx
	mov	rax, r12
	cmp	rcx, 32
	mov	qword ptr [rbp - 48], rcx
	jb	.LBB12_11
	mov	edx, ebx
	and	edx, 31
	mov	rax, r12
	.p2align	4
.LBB12_9:
	vmovdqu	ymm0, ymmword ptr [rax]
	vpmovmskb	esi, ymm0
	test	esi, esi
	jne	.LBB12_12
	add	rax, 32
	add	rcx, -32
	cmp	rcx, 31
	ja	.LBB12_9
.LBB12_11:
	mov	rcx, rdx
	test	rdx, rdx
	je	.LBB12_24
.LBB12_12:
	xor	edx, edx
	jmp	.LBB12_15
.LBB12_13:
	mov	esi, 3
	cmp	byte ptr [rax + rdx + 2], -65
	jg	.LBB12_24
	.p2align	4
.LBB12_14:
	add	rdx, rsi
	cmp	rdx, rcx
	jae	.LBB12_24
.LBB12_15:
	movzx	edi, byte ptr [rax + rdx]
	mov	esi, 1
	test	dil, dil
	jns	.LBB12_14
	movzx	edi, byte ptr [rdi + r14]
	cmp	rdi, 241
	je	.LBB12_24
	mov	esi, edi
	and	esi, 7
	lea	r8, [rdx + rsi]
	cmp	r8, rcx
	ja	.LBB12_24
	shr	dil
	and	dil, 120
	movabs	r8, 552180162688
	shrx	r9, r8, rdi
	movzx	r8d, byte ptr [rax + rdx + 1]
	cmp	r8b, r9b
	jb	.LBB12_24
	movabs	r9, 617395240895
	shrx	rdi, r9, rdi
	cmp	r8b, dil
	ja	.LBB12_24
	movzx	esi, sil
	cmp	sil, 2
	je	.LBB12_14
	cmp	esi, 4
	jne	.LBB12_13
	cmp	byte ptr [rax + rdx + 2], -65
	jg	.LBB12_24
	mov	esi, 4
	cmp	byte ptr [rax + rdx + 3], -64
	jl	.LBB12_14
	.p2align	4
.LBB12_24:
	xor	eax, eax
	test	al, al
	jne	.LBB12_177
	lea	r14, [r13 - 1]
	mov	rax, qword ptr [rbp + 8]
	mov	qword ptr [rbp - 64], rax
	mov	rax, -1
	cmp	r13, 1
	je	.LBB12_27
	mov	rdi, qword ptr [rbp - 192]
	mov	rax, qword ptr [rbp - 184]
	mov	rsi, r14
	xor	edx, edx
	mov	rcx, qword ptr [rbp - 64]
	vzeroupper
	call	qword ptr [rax]
	test	rax, rax
	je	.LBB12_177
.LBB12_27:
	lea	rsi, [r12 + rbx]
	add	rsi, 33
	mov	qword ptr [rbp - 232], rax
	mov	rdi, rax
	mov	rdx, r14
	vzeroupper
	call	memcpy@PLT
	lea	rax, [rbp - 192]
	vmovdqu	xmm0, xmmword ptr [rax]
	vmovdqa	xmmword ptr [rbp - 480], xmm0
	cmp	dword ptr [rbp - 196], 0
	mov	qword ptr [rbp - 80], r12
	mov	qword ptr [rbp - 568], r13
	mov	qword ptr [rbp - 72], r14
	je	.LBB12_71
.LBB12_28:
	mov	rdi, r12
	mov	rsi, qword ptr [rbp - 48]
	call	process.EnvMap.EnvNameHashContext.hash
	mov	rcx, qword ptr [rbp - 208]
	test	rcx, rcx
	je	.LBB12_60
	mov	r11d, dword ptr [rcx - 8]
	lea	edx, [r11 - 1]
	mov	rsi, rax
	shr	rsi, 57
	and	edx, eax
	mov	eax, r11d
	sub	eax, 1
	jb	.LBB12_62
	movzx	r14d, byte ptr [rcx + rdx]
	test	r14b, r14b
	je	.LBB12_62
	lea	r9d, [r11 - 1]
	cmp	rbx, -32
	mov	r10, r12
	movabs	rdi, -6148914691236517206
	cmove	r10, rdi
	lea	rdi, [rbx + 31]
	shr	rdi, 5
	mov	qword ptr [rbp - 216], rdi
	mov	rdi, qword ptr [rbp - 48]
	shr	rdi
	mov	qword ptr [rbp - 408], rdi
	and	edi, 12
	mov	qword ptr [rbp - 552], rdi
	mov	rdi, qword ptr [rbp - 224]
	shr	edi
	and	edi, 12
	sub	r12, rdi
	mov	qword ptr [rbp - 648], r12
	neg	rdi
	mov	qword ptr [rbp - 656], rdi
	mov	r8, r11
	mov	qword ptr [rbp - 560], rax
	.p2align	4
.LBB12_32:
	test	r14b, r14b
	jns	.LBB12_44
	mov	edi, r14d
	and	dil, 127
	cmp	sil, dil
	jne	.LBB12_44
	mov	r15, r11
	mov	r14, qword ptr [rcx - 16]
	mov	r13, rdx
	shl	r13, 4
	mov	rdi, qword ptr [r14 + r13 + 8]
	movabs	r12, -6148914691236517206
	test	rdi, rdi
	je	.LBB12_36
	mov	r12, qword ptr [r14 + r13]
.LBB12_36:
	mov	r11, rbx
	sub	r11, rdi
	cmp	r11, -32
	jne	.LBB12_56
	cmp	rbx, -32
	je	.LBB12_70
	cmp	r10, r12
	je	.LBB12_70
	mov	rdi, qword ptr [rbp - 48]
	cmp	rdi, 16
	ja	.LBB12_46
	cmp	rdi, 4
	jae	.LBB12_48
	mov	r11, qword ptr [rbp - 80]
	movzx	edi, byte ptr [r11]
	cmp	dil, byte ptr [r12]
	jne	.LBB12_56
	movzx	edi, byte ptr [r12 + rbx + 31]
	cmp	byte ptr [r11 + rbx + 31], dil
	jne	.LBB12_56
	mov	rdi, qword ptr [rbp - 408]
	movzx	edi, byte ptr [r12 + rdi]
	mov	r12, qword ptr [rbp - 408]
	cmp	byte ptr [r11 + r12], dil
	mov	r11, r15
	jne	.LBB12_57
	jmp	.LBB12_70
	.p2align	4
.LBB12_44:
	cmp	r8, r11
	jne	.LBB12_57
	cmp	r14b, 1
	mov	r8, r11
	cmove	r8, rdx
	jmp	.LBB12_57
.LBB12_46:
	cmp	rdi, 33
	jae	.LBB12_52
	mov	r11, r15
	mov	rdi, qword ptr [rbp - 80]
	vmovdqu	xmm0, xmmword ptr [rdi]
	vmovdqu	xmm1, xmmword ptr [rdi + rbx + 16]
	vpcmpneqb	k0, xmm0, xmmword ptr [r12]
	vpcmpneqb	k1, xmm1, xmmword ptr [r12 + rbx + 16]
	kortestw	k0, k1
	jne	.LBB12_57
	jmp	.LBB12_70
.LBB12_48:
	mov	edi, dword ptr [r12]
	mov	r11, qword ptr [rbp - 80]
	cmp	edi, dword ptr [r11]
	jne	.LBB12_56
	mov	edi, dword ptr [r11 + rbx + 28]
	cmp	dword ptr [r12 + rbx + 28], edi
	jne	.LBB12_56
	mov	rax, qword ptr [rbp - 552]
	mov	edi, dword ptr [r11 + rax]
	cmp	dword ptr [r12 + rax], edi
	jne	.LBB12_59
	add	r12, rbx
	mov	rax, qword ptr [rbp - 648]
	mov	edi, dword ptr [rax + rbx + 28]
	mov	rax, qword ptr [rbp - 656]
	cmp	dword ptr [rax + r12 + 28], edi
	mov	r11, r15
	mov	rax, qword ptr [rbp - 560]
	jne	.LBB12_57
	jmp	.LBB12_70
.LBB12_52:
	xor	r11d, r11d
	mov	rdi, qword ptr [rbp - 216]
	.p2align	4
.LBB12_53:
	vmovdqu	ymm0, ymmword ptr [r10 + r11]
	vpxor	ymm0, ymm0, ymmword ptr [r12 + r11]
	vptest	ymm0, ymm0
	jne	.LBB12_56
	add	r11, 32
	dec	rdi
	jne	.LBB12_53
	vmovdqu	ymm0, ymmword ptr [r10 + rbx]
	vpxor	ymm0, ymm0, ymmword ptr [r12 + rbx]
	vptest	ymm0, ymm0
	mov	r11, r15
	jne	.LBB12_57
	jmp	.LBB12_70
	.p2align	4
.LBB12_56:
	mov	r11, r15
.LBB12_57:
	inc	edx
	and	edx, eax
	movzx	r14d, byte ptr [rcx + rdx]
	sub	r9d, 1
	setb	dil
	test	r14b, r14b
	je	.LBB12_63
	test	dil, dil
	je	.LBB12_32
	jmp	.LBB12_63
.LBB12_59:
	mov	r11, r15
	mov	rax, qword ptr [rbp - 560]
	jmp	.LBB12_57
	.p2align	4
.LBB12_60:
	mov	rsi, rax
	shr	rsi, 57
	mov	edx, eax
	xor	r8d, r8d
	xor	r11d, r11d
	jmp	.LBB12_63
	.p2align	4
.LBB12_62:
	mov	r8, r11
.LBB12_63:
	cmp	r8, r11
	cmovb	rdx, r8
	or	sil, -128
	mov	byte ptr [rcx + rdx], sil
	shl	rdx, 4
	mov	r14, qword ptr [rcx - 16]
	add	r14, rdx
	add	rdx, qword ptr [rcx - 24]
	vmovq	xmm0, qword ptr [rbp - 200]
	vpaddd	xmm0, xmm0, xmmword ptr [rip + .LCPI12_0]
	vmovq	qword ptr [rbp - 200], xmm0
	mov	byte ptr [rbp - 544], 0
	lea	rax, [rbp - 544]
	movzx	eax, byte ptr [rax]
	mov	r13, rdx
.LBB12_64:
	mov	rcx, qword ptr [rbp - 48]
	test	al, 1
	je	.LBB12_67
	mov	rdx, qword ptr [r13 + 8]
	test	rdx, rdx
	je	.LBB12_3
	mov	rsi, qword ptr [r13]
	mov	rdi, qword ptr [rbp - 192]
	mov	rax, qword ptr [rbp - 184]
	xor	ecx, ecx
	mov	r8, qword ptr [rbp - 64]
	vzeroupper
	call	qword ptr [rax + 24]
	jmp	.LBB12_3
	.p2align	4
.LBB12_67:
	mov	rax, qword ptr [rbp - 80]
	mov	qword ptr [r14], rax
	mov	qword ptr [r14 + 8], rcx
	mov	rcx, qword ptr [rbp - 192]
	mov	r15, qword ptr [rbp - 184]
	xor	eax, eax
	test	al, al
	jne	.LBB12_117
	mov	r12, -1
	cmp	rbx, -32
	je	.LBB12_2
	mov	r12, rcx
	mov	rdi, rcx
	mov	rsi, qword ptr [rbp - 48]
	xor	edx, edx
	mov	rcx, qword ptr [rbp - 64]
	vzeroupper
	call	qword ptr [r15]
	mov	rcx, r12
	mov	r12, rax
	test	rax, rax
	jne	.LBB12_2
	jmp	.LBB12_117
.LBB12_70:
	add	r14, r13
	add	r13, qword ptr [rcx - 24]
	mov	byte ptr [rbp - 112], 1
	lea	rax, [rbp - 112]
	movzx	eax, byte ptr [rax]
	jmp	.LBB12_64
.LBB12_71:
	mov	rcx, qword ptr [rbp - 208]
	mov	eax, 1
	test	rcx, rcx
	je	.LBB12_73
	mov	eax, dword ptr [rcx - 8]
	shl	rax, 4
	lea	rdx, [rax + 4*rax]
	movabs	rax, 184467440737095517
	mulx	rax, rax, rax
	imul	rdx, rax, 100
	add	rdx, 100
	movabs	rax, 230584300921369396
	mulx	rax, rax, rax
.LBB12_73:
	lzcnt	eax, eax
	add	eax, 32
	neg	eax
	mov	ecx, 1
	shlx	rdx, rcx, rax
	lea	rdi, [rbp - 208]
	lea	rsi, [rbp - 480]
	call	"hash_map.HashMapUnmanaged([]const u8,[]const u8,process.EnvMap.EnvNameHashContext,80).grow"
	test	ax, ax
	je	.LBB12_28
	mov	word ptr [rbp - 216], ax
	cmp	dword ptr [rbp - 200], 0
	je	.LBB12_114
	mov	r12, qword ptr [rbp - 208]
	mov	rdi, qword ptr [rbp - 80]
	mov	rsi, qword ptr [rbp - 48]
	call	process.EnvMap.EnvNameHashContext.hash
	test	r12, r12
	je	.LBB12_114
	mov	ecx, dword ptr [r12 - 8]
	lea	edx, [rcx - 1]
	sub	ecx, 1
	jb	.LBB12_114
	and	edx, eax
	movzx	edi, byte ptr [r12 + rdx]
	test	dil, dil
	je	.LBB12_114
	shr	rax, 57
	cmp	rbx, -32
	mov	r9, qword ptr [rbp - 80]
	mov	rsi, r9
	movabs	r8, -6148914691236517206
	cmove	rsi, r8
	lea	r15, [rbx + 31]
	shr	r15, 5
	mov	r8, qword ptr [rbp - 48]
	shr	r8
	mov	qword ptr [rbp - 552], r8
	and	r8d, 12
	mov	qword ptr [rbp - 408], r8
	mov	r10, qword ptr [rbp - 224]
	shr	r10d
	and	r10d, 12
	sub	r9, r10
	mov	qword ptr [rbp - 560], r9
	neg	r10
	mov	r11d, ecx
	.p2align	4
.LBB12_79:
	test	dil, dil
	jns	.LBB12_101
	and	dil, 127
	cmp	al, dil
	jne	.LBB12_101
	mov	r14, qword ptr [r12 - 16]
	mov	r13, rdx
	shl	r13, 4
	mov	r8, qword ptr [r14 + r13 + 8]
	movabs	rdi, -6148914691236517206
	test	r8, r8
	je	.LBB12_83
	mov	rdi, qword ptr [r14 + r13]
.LBB12_83:
	mov	r9, rbx
	sub	r9, r8
	cmp	r9, -32
	jne	.LBB12_101
	cmp	rbx, -32
	je	.LBB12_103
	cmp	rsi, rdi
	je	.LBB12_103
	mov	r8, qword ptr [rbp - 48]
	cmp	r8, 16
	ja	.LBB12_91
	cmp	r8, 4
	jae	.LBB12_93
	mov	r8, qword ptr [rbp - 80]
	movzx	r8d, byte ptr [r8]
	cmp	r8b, byte ptr [rdi]
	jne	.LBB12_101
	movzx	r8d, byte ptr [rdi + rbx + 31]
	mov	r9, qword ptr [rbp - 80]
	cmp	byte ptr [r9 + rbx + 31], r8b
	jne	.LBB12_101
	mov	r9, qword ptr [rbp - 552]
	movzx	edi, byte ptr [rdi + r9]
	mov	r8, qword ptr [rbp - 80]
	cmp	byte ptr [r8 + r9], dil
	jne	.LBB12_101
	jmp	.LBB12_103
.LBB12_91:
	cmp	r8, 33
	jae	.LBB12_97
	mov	r8, qword ptr [rbp - 80]
	vmovdqu	xmm0, xmmword ptr [r8]
	vmovdqu	xmm1, xmmword ptr [r8 + rbx + 16]
	vpcmpneqb	k0, xmm0, xmmword ptr [rdi]
	vpcmpneqb	k1, xmm1, xmmword ptr [rdi + rbx + 16]
	kortestw	k0, k1
	jne	.LBB12_101
	jmp	.LBB12_103
.LBB12_93:
	mov	r8d, dword ptr [rdi]
	mov	r9, qword ptr [rbp - 80]
	cmp	r8d, dword ptr [r9]
	jne	.LBB12_101
	mov	r8, qword ptr [rbp - 80]
	mov	r8d, dword ptr [r8 + rbx + 28]
	cmp	dword ptr [rdi + rbx + 28], r8d
	jne	.LBB12_101
	mov	r8, qword ptr [rbp - 80]
	mov	r9, qword ptr [rbp - 408]
	mov	r8d, dword ptr [r8 + r9]
	cmp	dword ptr [rdi + r9], r8d
	jne	.LBB12_101
	add	rdi, rbx
	mov	r8, qword ptr [rbp - 560]
	mov	r8d, dword ptr [r8 + rbx + 28]
	cmp	dword ptr [r10 + rdi + 28], r8d
	jne	.LBB12_101
	jmp	.LBB12_103
.LBB12_97:
	xor	r9d, r9d
	mov	r8, r15
	.p2align	4
.LBB12_98:
	vmovdqu	ymm0, ymmword ptr [rsi + r9]
	vpxor	ymm0, ymm0, ymmword ptr [rdi + r9]
	vptest	ymm0, ymm0
	jne	.LBB12_101
	add	r9, 32
	dec	r8
	jne	.LBB12_98
	vmovdqu	ymm0, ymmword ptr [rsi + rbx]
	vpxor	ymm0, ymm0, ymmword ptr [rdi + rbx]
	vptest	ymm0, ymm0
	je	.LBB12_103
	.p2align	4
.LBB12_101:
	inc	edx
	and	edx, ecx
	movzx	edi, byte ptr [r12 + rdx]
	sub	r11d, 1
	setb	r8b
	test	dil, dil
	je	.LBB12_114
	test	r8b, r8b
	je	.LBB12_79
	jmp	.LBB12_114
.LBB12_103:
	add	r14, r13
	add	r13, qword ptr [r12 - 24]
	mov	byte ptr [rbp - 128], 1
	mov	al, 1
	jmp	.LBB12_64
.LBB12_104:
	vmovups	xmm0, xmmword ptr [rbp - 208]
	vmovups	xmmword ptr [rbp - 640], xmm0
	vmovdqu	xmm0, xmmword ptr [rbp - 192]
	vmovdqu	xmmword ptr [rbp - 624], xmm0
	mov	rbx, qword ptr [rbp - 640]
	mov	r14d, dword ptr [rbp - 632]
	lea	rdx, [rip + __anon_2418]
	mov	ecx, 10
	mov	rdi, rbx
	mov	esi, r14d
	vzeroupper
	call	process.EnvMap.get
	test	rax, rax
	je	.LBB12_773
	mov	qword ptr [rbp - 3272], rax
	mov	qword ptr [rbp - 3264], rdx
	lea	rdx, [rip + __anon_2518]
	mov	ecx, 10
	mov	rdi, rbx
	mov	esi, r14d
	call	process.EnvMap.get
	test	rax, rax
	je	.LBB12_774
	mov	rsi, rdx
	mov	r12w, 4
	test	rdx, rdx
	je	.LBB12_707
	mov	rcx, rax
	movzx	edx, byte ptr [rax]
	xor	eax, eax
	mov	r15d, 262144
	cmp	edx, 95
	je	.LBB12_181
	cmp	edx, 45
	je	.LBB12_146
	cmp	edx, 43
	jne	.LBB12_155
	xor	eax, eax
	cmp	rsi, 1
	je	.LBB12_181
	cmp	byte ptr [rcx + 1], 95
	je	.LBB12_181
	cmp	byte ptr [rcx + rsi - 1], 95
	je	.LBB12_181
	mov	edi, 1
	xor	eax, eax
	mov	r8w, 10
	jmp	.LBB12_168
.LBB12_114:
	cmp	qword ptr [rbp - 568], 1
	je	.LBB12_116
	mov	rdi, qword ptr [rbp - 192]
	mov	rax, qword ptr [rbp - 184]
	mov	rsi, qword ptr [rbp - 232]
	mov	rdx, qword ptr [rbp - 72]
	xor	ecx, ecx
	mov	r8, qword ptr [rbp - 64]
	vzeroupper
	call	qword ptr [rax + 24]
.LBB12_116:
	lea	rdi, [rbp - 208]
	vzeroupper
	call	process.EnvMap.deinit
	movzx	r12d, word ptr [rbp - 216]
	jmp	.LBB12_708
.LBB12_117:
	mov	qword ptr [rbp - 408], rcx
	mov	qword ptr [rbp - 48], r15
	mov	r14d, dword ptr [rbp - 200]
	test	r14d, r14d
	je	.LBB12_175
	mov	r12, qword ptr [rbp - 208]
	lea	r13, [rbx + 32]
	mov	rdi, qword ptr [rbp - 80]
	mov	rsi, r13
	vzeroupper
	call	process.EnvMap.EnvNameHashContext.hash
	test	r12, r12
	je	.LBB12_175
	mov	ecx, dword ptr [r12 - 8]
	lea	r8d, [rcx - 1]
	sub	ecx, 1
	jb	.LBB12_175
	and	r8d, eax
	movzx	r10d, byte ptr [r12 + r8]
	test	r10b, r10b
	je	.LBB12_175
	shr	rax, 57
	cmp	rbx, -32
	mov	rdi, qword ptr [rbp - 80]
	mov	rsi, rdi
	movabs	rdx, -6148914691236517206
	cmove	rsi, rdx
	lea	rdx, [rbx + 31]
	shr	rdx, 5
	mov	qword ptr [rbp - 56], rdx
	mov	rdx, r13
	shr	rdx
	mov	qword ptr [rbp - 552], rdx
	and	edx, 12
	mov	qword ptr [rbp - 216], rdx
	mov	r15, qword ptr [rbp - 224]
	shr	r15d
	and	r15d, 12
	sub	rdi, r15
	mov	qword ptr [rbp - 224], rdi
	neg	r15
	mov	r11d, ecx
	.p2align	4
.LBB12_122:
	test	r10b, r10b
	jns	.LBB12_144
	and	r10b, 127
	cmp	al, r10b
	jne	.LBB12_144
	mov	r9, qword ptr [r12 - 16]
	mov	rdx, r8
	shl	rdx, 4
	mov	rdi, qword ptr [r9 + rdx + 8]
	movabs	r10, -6148914691236517206
	test	rdi, rdi
	je	.LBB12_126
	mov	r10, qword ptr [r9 + rdx]
.LBB12_126:
	mov	rdx, rbx
	sub	rdx, rdi
	cmp	rdx, -32
	jne	.LBB12_144
	cmp	rbx, -32
	je	.LBB12_174
	cmp	rsi, r10
	je	.LBB12_174
	cmp	r13, 16
	ja	.LBB12_134
	cmp	r13, 4
	jae	.LBB12_136
	mov	rdx, qword ptr [rbp - 80]
	movzx	edx, byte ptr [rdx]
	cmp	dl, byte ptr [r10]
	jne	.LBB12_144
	movzx	edx, byte ptr [r10 + rbx + 31]
	mov	rdi, qword ptr [rbp - 80]
	cmp	byte ptr [rdi + rbx + 31], dl
	jne	.LBB12_144
	mov	r9, qword ptr [rbp - 552]
	movzx	edx, byte ptr [r10 + r9]
	mov	rdi, qword ptr [rbp - 80]
	cmp	byte ptr [rdi + r9], dl
	jne	.LBB12_144
	jmp	.LBB12_174
.LBB12_134:
	cmp	r13, 33
	jae	.LBB12_140
	mov	rdx, qword ptr [rbp - 80]
	vmovdqu	xmm0, xmmword ptr [rdx]
	vmovdqu	xmm1, xmmword ptr [rdx + rbx + 16]
	vpcmpneqb	k0, xmm0, xmmword ptr [r10]
	vpcmpneqb	k1, xmm1, xmmword ptr [r10 + rbx + 16]
	kortestw	k0, k1
	jne	.LBB12_144
	jmp	.LBB12_174
.LBB12_136:
	mov	edx, dword ptr [r10]
	mov	rdi, qword ptr [rbp - 80]
	cmp	edx, dword ptr [rdi]
	jne	.LBB12_144
	mov	rdx, qword ptr [rbp - 80]
	mov	edx, dword ptr [rdx + rbx + 28]
	cmp	dword ptr [r10 + rbx + 28], edx
	jne	.LBB12_144
	mov	rdx, qword ptr [rbp - 80]
	mov	rdi, qword ptr [rbp - 216]
	mov	edx, dword ptr [rdx + rdi]
	cmp	dword ptr [r10 + rdi], edx
	jne	.LBB12_144
	add	r10, rbx
	mov	rdx, qword ptr [rbp - 224]
	mov	edx, dword ptr [rdx + rbx + 28]
	cmp	dword ptr [r15 + r10 + 28], edx
	jne	.LBB12_144
	jmp	.LBB12_174
.LBB12_140:
	xor	edi, edi
	mov	r9, qword ptr [rbp - 56]
	.p2align	4
.LBB12_141:
	vmovdqu	ymm0, ymmword ptr [rsi + rdi]
	vpxor	ymm0, ymm0, ymmword ptr [r10 + rdi]
	vptest	ymm0, ymm0
	jne	.LBB12_144
	add	rdi, 32
	dec	r9
	jne	.LBB12_141
	vmovdqu	ymm0, ymmword ptr [rsi + rbx]
	vpxor	ymm0, ymm0, ymmword ptr [r10 + rbx]
	vptest	ymm0, ymm0
	je	.LBB12_174
	.p2align	4
.LBB12_144:
	inc	r8d
	and	r8d, ecx
	movzx	r10d, byte ptr [r12 + r8]
	sub	r11d, 1
	setb	dl
	test	r10b, r10b
	je	.LBB12_175
	test	dl, dl
	je	.LBB12_122
	jmp	.LBB12_175
.LBB12_146:
	cmp	rsi, 1
	je	.LBB12_707
	cmp	byte ptr [rcx + 1], 95
	je	.LBB12_707
	cmp	byte ptr [rcx + rsi - 1], 95
	je	.LBB12_707
	mov	eax, 1
	jmp	.LBB12_151
.LBB12_150:
	inc	rax
	xor	r15d, r15d
	cmp	rsi, rax
	je	.LBB12_182
.LBB12_151:
	movzx	edx, byte ptr [rcx + rax]
	cmp	dl, 95
	je	.LBB12_150
	lea	edi, [rdx - 48]
	cmp	dil, 9
	ja	.LBB12_707
	cmp	dl, 48
	jbe	.LBB12_150
	mov	r12w, 3
	jmp	.LBB12_707
.LBB12_155:
	cmp	byte ptr [rcx + rsi - 1], 95
	je	.LBB12_181
	xor	edi, edi
	mov	r8w, 10
	xor	eax, eax
	jmp	.LBB12_160
.LBB12_157:
	xor	edx, edx
.LBB12_158:
	movzx	eax, r9b
	add	ax, dx
	setb	dl
	setb	byte ptr [rbp - 400]
	test	dl, dl
	jne	.LBB12_164
.LBB12_159:
	inc	rdi
	cmp	rsi, rdi
	je	.LBB12_178
.LBB12_160:
	movzx	r9d, byte ptr [rcx + rdi]
	cmp	r9b, 95
	je	.LBB12_159
	add	r9b, -48
	cmp	r9b, 9
	ja	.LBB12_179
	test	ax, ax
	je	.LBB12_157
	mul	r8w
	mov	edx, eax
	seto	al
	seto	byte ptr [rbp - 400]
	test	al, al
	je	.LBB12_158
.LBB12_164:
	xor	eax, eax
	mov	r15d, 196608
	jmp	.LBB12_181
.LBB12_165:
	xor	edx, edx
.LBB12_166:
	movzx	eax, r9b
	add	ax, dx
	setb	dl
	setb	byte ptr [rbp - 400]
	test	dl, dl
	jne	.LBB12_164
.LBB12_167:
	inc	rdi
	cmp	rsi, rdi
	je	.LBB12_178
.LBB12_168:
	movzx	r9d, byte ptr [rcx + rdi]
	cmp	r9b, 95
	je	.LBB12_167
	add	r9b, -48
	cmp	r9b, 9
	ja	.LBB12_179
	test	ax, ax
	je	.LBB12_165
	mul	r8w
	mov	edx, eax
	seto	al
	seto	byte ptr [rbp - 400]
	test	al, al
	je	.LBB12_166
	jmp	.LBB12_164
.LBB12_178:
	xor	r15d, r15d
	jmp	.LBB12_180
.LBB12_179:
	mov	r15d, 262144
.LBB12_180:
	movzx	eax, ax
.LBB12_181:
	or	r15d, eax
	cmp	r15d, 65536
	jae	.LBB12_824
.LBB12_182:
	lea	rdx, [rip + __anon_2545]
	mov	ecx, 14
	mov	rdi, rbx
	mov	esi, r14d
	call	process.EnvMap.get
	test	rax, rax
	je	.LBB12_775
	mov	r12, rax
	mov	r13, rdx
	lea	rdx, [rip + __anon_2557]
	mov	ecx, 14
	mov	rdi, rbx
	mov	esi, r14d
	call	process.EnvMap.get
	test	rax, rax
	je	.LBB12_776
	mov	rbx, rax
	mov	r14, rdx
	vmovups	xmm0, xmmword ptr [rip + .L__unnamed_8]
	vmovaps	xmmword ptr [rbp - 3952], xmm0
	mov	qword ptr [rbp - 400], 4
	lea	rdi, [rip + __anon_8347]
	lea	rsi, [rbp - 208]
	lea	rdx, [rbp - 400]
	xor	ecx, ecx
	xor	r8d, r8d
	call	sysctlbyname@PLT
	cmp	eax, -1
	mov	qword ptr [rbp - 48], r13
	mov	qword ptr [rbp - 80], rbx
	je	.LBB12_186
.LBB12_185:
	mov	rbx, r12
	mov	ecx, dword ptr [rbp - 208]
	vmovups	xmm0, xmmword ptr [rip + .L__unnamed_8]
	vmovaps	xmmword ptr [rbp - 400], xmm0
	mov	qword ptr [rbp - 376], 16777216
	dec	rcx
	xor	eax, eax
	jmp	.LBB12_193
.LBB12_186:
	call	__error@PLT
	movzx	eax, word ptr [rax]
	cmp	rax, 12
	ja	.LBB12_191
	lea	rcx, [rip + .LJTI12_0]
	movsxd	rax, dword ptr [rcx + 4*rax]
	add	rax, rcx
	jmp	rax
.LBB12_188:
	mov	ax, 22
	jmp	.LBB12_192
.LBB12_189:
	mov	ax, 51
	jmp	.LBB12_192
.LBB12_190:
	mov	ax, 10
	jmp	.LBB12_192
.LBB12_191:
	mov	ax, 2
.LBB12_192:
	mov	rbx, r12
	vmovups	xmm0, xmmword ptr [rip + .L__unnamed_8]
	vmovaps	xmmword ptr [rbp - 400], xmm0
	mov	qword ptr [rbp - 376], 16777216
	xor	ecx, ecx
.LBB12_193:
	mov	qword ptr [rbp - 64], r14
	mov	qword ptr [rbp - 352], rcx
	mov	word ptr [rbp - 252], ax
	mov	dword ptr [rbp - 264], 0
	mov	qword ptr [rbp - 260], 0
	mov	qword ptr [rbp - 384], 0
	mov	word ptr [rbp - 250], 0
	vxorps	xmm0, xmm0, xmm0
	vmovaps	xmmword ptr [rbp - 368], xmm0
	lea	r13, [rbp - 328]
	mov	qword ptr [rbp - 344], -1
	mov	qword ptr [rbp - 336], 0
	lea	rax, [rip + Io.Threaded.doNothingSignalHandler]
	mov	qword ptr [rbp - 208], rax
	lea	r12, [rbp - 196]
	lea	rdi, [rbp - 480]
	call	sigemptyset@PLT
	cmp	eax, -1
	jne	.LBB12_195
	call	__error@PLT
.LBB12_195:
	lea	r14, [rbp - 296]
	vmovaps	xmm0, xmmword ptr [rbp - 480]
	vmovups	xmmword ptr [r12], xmm0
	mov	dword ptr [rbp - 200], 0
	lea	rsi, [rbp - 208]
	mov	edi, 23
	mov	rdx, r13
	call	sigaction@PLT
	cmp	eax, -1
	jne	.LBB12_197
	call	__error@PLT
.LBB12_197:
	lea	rsi, [rbp - 208]
	mov	edi, 13
	mov	rdx, r14
	call	sigaction@PLT
	cmp	eax, -1
	jne	.LBB12_199
	call	__error@PLT
.LBB12_199:
	mov	byte ptr [rbp - 249], 1
	vmovups	ymm0, ymmword ptr [rbp - 400]
	vmovdqu	ymm1, ymmword ptr [rbp - 368]
	vmovdqu	ymm2, ymmword ptr [rbp - 336]
	vmovups	ymm3, ymmword ptr [rbp - 304]
	vmovups	ymmword ptr [rbp - 3936], ymm0
	vmovdqu	ymmword ptr [rbp - 3904], ymm1
	vmovdqu	ymmword ptr [rbp - 3872], ymm2
	vmovups	ymmword ptr [rbp - 3840], ymm3
	vmovdqu	xmm0, xmmword ptr [rbp - 280]
	vmovdqu	xmmword ptr [rbp - 3816], xmm0
	mov	rax, qword ptr [rbp - 264]
	mov	qword ptr [rbp - 3800], rax
	mov	eax, dword ptr [rbp - 256]
	mov	dword ptr [rbp - 3792], eax
	movzx	eax, word ptr [rbp - 252]
	mov	word ptr [rbp - 3788], ax
	movzx	eax, byte ptr [rbp - 250]
	mov	byte ptr [rbp - 3786], al
	movzx	eax, byte ptr [rbp - 249]
	mov	byte ptr [rbp - 3785], al
	mov	byte ptr [rbp - 132], 0
	lea	r14, [rbp - 3256]
	lea	rsi, [rbp - 3952]
	mov	edx, 416
	mov	rdi, r14
	vzeroupper
	call	memcpy@PLT
	movzx	eax, byte ptr [rbp - 132]
	lea	rcx, [rip + __anon_2577]
	mov	qword ptr [rbp - 2840], rcx
	mov	qword ptr [rbp - 2832], 12
	lea	rcx, [rip + __anon_2582]
	mov	qword ptr [rbp - 2824], rcx
	mov	qword ptr [rbp - 2816], 20
	lea	r13, [rip + __anon_4157]
	mov	qword ptr [rbp - 2792], r13
	mov	qword ptr [rbp - 2784], 9
	mov	byte ptr [rbp - 660], al
	mov	qword ptr [rbp - 3304], rbx
	mov	rax, qword ptr [rbp - 48]
	mov	qword ptr [rbp - 3296], rax
	mov	rax, qword ptr [rbp - 80]
	mov	qword ptr [rbp - 3288], rax
	mov	rax, qword ptr [rbp - 64]
	mov	qword ptr [rbp - 3280], rax
	lea	rsi, [rbp - 3272]
	lea	rcx, [rbp - 3304]
	mov	rdi, r14
	mov	edx, r15d
	call	lib.API.connect
	test	ax, ax
	jne	.LBB12_608
	lea	rdi, [rbp - 544]
	lea	rsi, [rbp - 400]
	mov	edx, 64
	call	debug.lockStderrWriter
	xor	r12d, r12d
	mov	rbx, qword ptr [rbp - 544]
	lea	r14, [rbp - 480]
	.p2align	4
.LBB12_201:
	lea	rsi, [r12 + r13]
	mov	r15d, 9
	sub	r15, r12
	mov	rdi, qword ptr [rbx + 24]
	lea	rax, [rdi + r15]
	cmp	rax, qword ptr [rbx + 16]
	ja	.LBB12_203
	add	rdi, qword ptr [rbx + 8]
	mov	rdx, r15
	call	memcpy@PLT
	add	qword ptr [rbx + 24], r15
	add	r12, r15
	cmp	r12, 9
	jb	.LBB12_201
	jmp	.LBB12_205
.LBB12_203:
	mov	rax, qword ptr [rbx]
	mov	rax, qword ptr [rax]
	mov	qword ptr [rbp - 480], rsi
	mov	qword ptr [rbp - 472], r15
	mov	ecx, 1
	mov	r8d, 1
	lea	rdi, [rbp - 208]
	mov	rsi, rbx
	mov	rdx, r14
	call	rax
	cmp	word ptr [rbp - 200], 0
	jne	.LBB12_210
	mov	r15, qword ptr [rbp - 208]
	add	r12, r15
	cmp	r12, 9
	jb	.LBB12_201
.LBB12_205:
	xor	r13d, r13d
	lea	r14, [rip + __anon_10603]
	lea	r15, [rbp - 480]
	.p2align	4
.LBB12_206:
	lea	rsi, [r14 + r13]
	mov	r12d, 9
	sub	r12, r13
	mov	rdi, qword ptr [rbx + 24]
	lea	rax, [rdi + r12]
	cmp	rax, qword ptr [rbx + 16]
	ja	.LBB12_208
	add	rdi, qword ptr [rbx + 8]
	mov	rdx, r12
	call	memcpy@PLT
	add	qword ptr [rbx + 24], r12
	add	r13, r12
	cmp	r13, 9
	jb	.LBB12_206
	jmp	.LBB12_210
.LBB12_208:
	mov	rax, qword ptr [rbx]
	mov	rax, qword ptr [rax]
	mov	qword ptr [rbp - 480], rsi
	mov	qword ptr [rbp - 472], r12
	mov	ecx, 1
	mov	r8d, 1
	lea	rdi, [rbp - 208]
	mov	rsi, rbx
	mov	rdx, r15
	call	rax
	cmp	word ptr [rbp - 200], 0
	jne	.LBB12_210
	mov	r12, qword ptr [rbp - 208]
	add	r13, r12
	cmp	r13, 9
	jb	.LBB12_206
.LBB12_210:
	movabs	rbx, -6148914691236517206
	mov	rax, qword ptr [rip + Progress.stderr_file_writer+8]
	lea	rdi, [rip + Progress.stderr_file_writer+8]
	call	qword ptr [rax + 16]
	mov	qword ptr [rip + Progress.stderr_file_writer+16], rbx
	vpxor	xmm0, xmm0, xmm0
	vmovdqu	xmmword ptr [rip + Progress.stderr_file_writer+24], xmm0
	dec	qword ptr [rip + Progress.stderr_mutex]
	jne	.LBB12_212
	mov	dword ptr [rip + Progress.stderr_mutex+12], -1
	xor	eax, eax
	xchg	dword ptr [rip + Progress.stderr_mutex+8], eax
	cmp	eax, 3
	je	.LBB12_570
.LBB12_212:
	cmp	byte ptr [rbp - 660], 0
	je	.LBB12_571
.LBB12_213:
	lea	r15, [rbp - 3048]
	lea	r14, [rbp - 112]
	lea	r13, [rip + __anon_7106]
	xor	edx, edx
	xor	eax, eax
	mov	qword ptr [rbp - 80], 0
	xor	ecx, ecx
.LBB12_214:
	vmovdqu	xmm0, xmmword ptr [rbp - 3256]
	vmovdqa	xmmword ptr [rbp - 128], xmm0
	mov	qword ptr [rbp - 48], rcx
	mov	rsi, rax
	mov	qword ptr [rbp - 232], rdx
	mov	r8, qword ptr [rbp - 2840]
	mov	r9, qword ptr [rbp - 2832]
	mov	rdi, qword ptr [rbp - 3088]
	mov	rcx, qword ptr [rbp - 3080]
	mov	rax, qword ptr [rbp - 3056]
	.p2align	4
.LBB12_215:
	mov	rdx, rax
	and	rdx, -2
	lock		cmpxchg	qword ptr [rbp - 3056], rdx
	jne	.LBB12_215
	test	al, 1
	mov	qword ptr [rbp - 56], r8
	je	.LBB12_235
.LBB12_217:
	cmp	byte ptr [rbp - 3032], 1
	je	.LBB12_585
	mov	rax, qword ptr [rbp - 3040]
	test	rax, rax
	sete	byte ptr [rbp - 96]
	vpxor	xmm0, xmm0, xmm0
	vmovdqa	xmmword ptr [rbp - 112], xmm0
	je	.LBB12_220
	mov	qword ptr [rax + 8], r14
.LBB12_220:
	mov	qword ptr [rbp - 3040], r14
	mov	r12, qword ptr [rbp - 3072]
	mov	qword ptr [rbp - 64], rsi
	mov	qword ptr [rbp - 72], r9
.LBB12_221:
	mov	rax, qword ptr [r12 + 24]
	cmp	rax, qword ptr [r12 + 16]
	jb	.LBB12_224
	mov	rbx, r14
	mov	rax, qword ptr [r12]
	mov	rax, qword ptr [rax]
	lea	rcx, [rip + __anon_7087]
	mov	qword ptr [rbp - 208], rcx
	mov	qword ptr [rbp - 200], 1
	mov	ecx, 1
	mov	r8d, 1
	lea	rdi, [rbp - 400]
	mov	rsi, r12
	lea	rdx, [rbp - 208]
	call	rax
	movzx	eax, word ptr [rbp - 392]
	mov	r14d, eax
	test	ax, ax
	jne	.LBB12_558
	cmp	qword ptr [rbp - 400], 0
	mov	r14, rbx
	je	.LBB12_221
	jmp	.LBB12_225
.LBB12_224:
	mov	rcx, qword ptr [r12 + 8]
	mov	byte ptr [rcx + rax], 42
	inc	qword ptr [r12 + 24]
.LBB12_225:
	mov	word ptr [rbp - 337], 12593
	xor	ebx, ebx
	.p2align	4
.LBB12_226:
	lea	rax, [rbp - 337]
	lea	rsi, [rax + rbx]
	mov	r14d, 2
	sub	r14, rbx
	mov	rdi, qword ptr [r12 + 24]
	lea	rax, [rdi + r14]
	cmp	rax, qword ptr [r12 + 16]
	ja	.LBB12_228
	add	rdi, qword ptr [r12 + 8]
	mov	rdx, r14
	call	memcpy@PLT
	add	qword ptr [r12 + 24], r14
	add	rbx, r14
	cmp	rbx, 2
	jb	.LBB12_226
	jmp	.LBB12_230
.LBB12_228:
	mov	rax, qword ptr [r12]
	mov	rax, qword ptr [rax]
	mov	qword ptr [rbp - 248], rsi
	mov	qword ptr [rbp - 240], r14
	mov	ecx, 1
	mov	r8d, 1
	lea	rdi, [rbp - 208]
	mov	rsi, r12
	lea	rdx, [rbp - 248]
	call	rax
	movzx	eax, word ptr [rbp - 200]
	test	ax, ax
	jne	.LBB12_557
	mov	r14, qword ptr [rbp - 208]
	add	rbx, r14
	cmp	rbx, 2
	jb	.LBB12_226
.LBB12_230:
	xor	ebx, ebx
	.p2align	4
.LBB12_231:
	lea	rsi, [rbx + r13]
	mov	r14d, 2
	sub	r14, rbx
	mov	rdi, qword ptr [r12 + 24]
	lea	rax, [rdi + r14]
	cmp	rax, qword ptr [r12 + 16]
	ja	.LBB12_233
	add	rdi, qword ptr [r12 + 8]
	mov	rdx, r14
	call	memcpy@PLT
	add	qword ptr [r12 + 24], r14
	add	rbx, r14
	cmp	rbx, 2
	jb	.LBB12_231
	jmp	.LBB12_237
.LBB12_233:
	mov	rax, qword ptr [r12]
	mov	rax, qword ptr [rax]
	mov	qword ptr [rbp - 208], rsi
	mov	qword ptr [rbp - 200], r14
	mov	ecx, 1
	mov	r8d, 1
	lea	rdi, [rbp - 400]
	mov	rsi, r12
	lea	rdx, [rbp - 208]
	call	rax
	movzx	eax, word ptr [rbp - 392]
	mov	r14d, eax
	test	ax, ax
	jne	.LBB12_558
	mov	r14, qword ptr [rbp - 400]
	add	rbx, r14
	cmp	rbx, 2
	jb	.LBB12_231
	jmp	.LBB12_237
.LBB12_235:
	mov	r12, r9
	mov	rbx, rsi
	mov	rsi, rax
	lea	rdx, [rbp - 3056]
	call	qword ptr [rcx + 80]
	mov	rsi, rbx
	mov	r9, r12
	mov	r12d, eax
	test	ax, ax
	jne	.LBB12_692
	jmp	.LBB12_217
.LBB12_236:
	cmp	qword ptr [rbp - 400], 0
	jne	.LBB12_240
.LBB12_237:
	mov	rax, qword ptr [r12 + 24]
	cmp	rax, qword ptr [r12 + 16]
	jb	.LBB12_239
	mov	rax, qword ptr [r12]
	mov	rax, qword ptr [rax]
	lea	rcx, [rip + __anon_7133]
	mov	qword ptr [rbp - 208], rcx
	mov	qword ptr [rbp - 200], 1
	mov	ecx, 1
	mov	r8d, 1
	lea	rdi, [rbp - 400]
	mov	rsi, r12
	lea	rdx, [rbp - 208]
	call	rax
	movzx	eax, word ptr [rbp - 392]
	mov	r14d, eax
	test	ax, ax
	jne	.LBB12_558
	jmp	.LBB12_236
.LBB12_239:
	mov	rcx, qword ptr [r12 + 8]
	mov	byte ptr [rcx + rax], 36
	inc	qword ptr [r12 + 24]
.LBB12_240:
	mov	word ptr [rbp - 337], 12337
	xor	ebx, ebx
	.p2align	4
.LBB12_241:
	lea	rax, [rbp - 337]
	lea	rsi, [rax + rbx]
	mov	r14d, 2
	sub	r14, rbx
	mov	rdi, qword ptr [r12 + 24]
	lea	rax, [rdi + r14]
	cmp	rax, qword ptr [r12 + 16]
	ja	.LBB12_243
	add	rdi, qword ptr [r12 + 8]
	mov	rdx, r14
	call	memcpy@PLT
	add	qword ptr [r12 + 24], r14
	add	rbx, r14
	cmp	rbx, 2
	jb	.LBB12_241
	jmp	.LBB12_245
.LBB12_243:
	mov	rax, qword ptr [r12]
	mov	rax, qword ptr [rax]
	mov	qword ptr [rbp - 248], rsi
	mov	qword ptr [rbp - 240], r14
	mov	ecx, 1
	mov	r8d, 1
	lea	rdi, [rbp - 208]
	mov	rsi, r12
	lea	rdx, [rbp - 248]
	call	rax
	movzx	eax, word ptr [rbp - 200]
	test	ax, ax
	jne	.LBB12_557
	mov	r14, qword ptr [rbp - 208]
	add	rbx, r14
	cmp	rbx, 2
	jb	.LBB12_241
.LBB12_245:
	xor	ebx, ebx
	.p2align	4
.LBB12_246:
	lea	rsi, [rbx + r13]
	mov	r14d, 2
	sub	r14, rbx
	mov	rdi, qword ptr [r12 + 24]
	lea	rax, [rdi + r14]
	cmp	rax, qword ptr [r12 + 16]
	ja	.LBB12_248
	add	rdi, qword ptr [r12 + 8]
	mov	rdx, r14
	call	memcpy@PLT
	add	qword ptr [r12 + 24], r14
	add	rbx, r14
	cmp	rbx, 2
	jb	.LBB12_246
	jmp	.LBB12_250
.LBB12_248:
	mov	rax, qword ptr [r12]
	mov	rax, qword ptr [rax]
	mov	qword ptr [rbp - 208], rsi
	mov	qword ptr [rbp - 200], r14
	mov	ecx, 1
	mov	r8d, 1
	lea	rdi, [rbp - 400]
	mov	rsi, r12
	lea	rdx, [rbp - 208]
	call	rax
	movzx	eax, word ptr [rbp - 392]
	mov	r14d, eax
	test	ax, ax
	jne	.LBB12_558
	mov	r14, qword ptr [rbp - 400]
	add	rbx, r14
	cmp	rbx, 2
	jb	.LBB12_246
.LBB12_250:
	movabs	rax, 5715709235564991064
	mov	qword ptr [rbp - 400], rax
	mov	dword ptr [rbp - 393], 5264719
	xor	ebx, ebx
	.p2align	4
.LBB12_251:
	lea	rsi, [rbx + rbp]
	add	rsi, -400
	mov	r14d, 10
	sub	r14, rbx
	mov	rdi, qword ptr [r12 + 24]
	lea	rax, [rdi + r14]
	cmp	rax, qword ptr [r12 + 16]
	ja	.LBB12_253
	add	rdi, qword ptr [r12 + 8]
	mov	rdx, r14
	call	memcpy@PLT
	add	qword ptr [r12 + 24], r14
	add	rbx, r14
	cmp	rbx, 10
	jb	.LBB12_251
	jmp	.LBB12_255
.LBB12_253:
	mov	rax, qword ptr [r12]
	mov	rax, qword ptr [rax]
	mov	qword ptr [rbp - 248], rsi
	mov	qword ptr [rbp - 240], r14
	mov	ecx, 1
	mov	r8d, 1
	lea	rdi, [rbp - 208]
	mov	rsi, r12
	lea	rdx, [rbp - 248]
	call	rax
	movzx	eax, word ptr [rbp - 200]
	test	ax, ax
	jne	.LBB12_557
	mov	r14, qword ptr [rbp - 208]
	add	rbx, r14
	cmp	rbx, 10
	jb	.LBB12_251
.LBB12_255:
	xor	ebx, ebx
	.p2align	4
.LBB12_256:
	lea	rsi, [rbx + r13]
	mov	r14d, 2
	sub	r14, rbx
	mov	rdi, qword ptr [r12 + 24]
	lea	rax, [rdi + r14]
	cmp	rax, qword ptr [r12 + 16]
	ja	.LBB12_258
	add	rdi, qword ptr [r12 + 8]
	mov	rdx, r14
	call	memcpy@PLT
	add	qword ptr [r12 + 24], r14
	add	rbx, r14
	cmp	rbx, 2
	jb	.LBB12_256
	jmp	.LBB12_260
.LBB12_258:
	mov	rax, qword ptr [r12]
	mov	rax, qword ptr [rax]
	mov	qword ptr [rbp - 208], rsi
	mov	qword ptr [rbp - 200], r14
	mov	ecx, 1
	mov	r8d, 1
	lea	rdi, [rbp - 400]
	mov	rsi, r12
	lea	rdx, [rbp - 208]
	call	rax
	movzx	eax, word ptr [rbp - 392]
	mov	r14d, eax
	test	ax, ax
	jne	.LBB12_558
	mov	r14, qword ptr [rbp - 400]
	add	rbx, r14
	cmp	rbx, 2
	jb	.LBB12_256
.LBB12_260:
	mov	rdi, r12
	lea	rsi, [rip + .L__unnamed_10]
	call	serializer.CommandSerializer.serializeArgument__anon_4810
	test	ax, ax
	jne	.LBB12_557
	mov	edx, 3
	mov	rdi, r12
	lea	rsi, [rip + __anon_2596]
	call	serializer.CommandSerializer.serializeArgument__anon_4640
	test	ax, ax
	jne	.LBB12_557
	mov	edx, 9
	mov	rdi, r12
	lea	rsi, [rip + __anon_4157]
	call	serializer.CommandSerializer.serializeArgument__anon_4640
	test	ax, ax
	jne	.LBB12_557
	mov	rdi, r12
	lea	rsi, [rip + .L__unnamed_11]
	call	serializer.CommandSerializer.serializeArgument__anon_4810
	test	ax, ax
	jne	.LBB12_557
	mov	rdi, r12
	mov	esi, 49
	call	serializer.CommandSerializer.serializeArgument__anon_4820
	test	ax, ax
	jne	.LBB12_557
	mov	rdi, r12
	lea	rsi, [rip + .L__unnamed_12]
	call	serializer.CommandSerializer.serializeArgument__anon_4810
	test	ax, ax
	jne	.LBB12_557
	mov	rdi, r12
	mov	esi, 48
	call	serializer.CommandSerializer.serializeArgument__anon_4820
	test	ax, ax
	jne	.LBB12_557
.LBB12_267:
	mov	rax, qword ptr [r12 + 24]
	cmp	rax, qword ptr [r12 + 16]
	jb	.LBB12_270
	mov	rax, qword ptr [r12]
	mov	rax, qword ptr [rax]
	lea	rcx, [rip + __anon_7133]
	mov	qword ptr [rbp - 208], rcx
	mov	qword ptr [rbp - 200], 1
	mov	ecx, 1
	mov	r8d, 1
	lea	rdi, [rbp - 400]
	mov	rsi, r12
	lea	rdx, [rbp - 208]
	call	rax
	movzx	eax, word ptr [rbp - 392]
	mov	r14d, eax
	test	ax, ax
	jne	.LBB12_558
	cmp	qword ptr [rbp - 400], 0
	je	.LBB12_267
	jmp	.LBB12_271
.LBB12_270:
	mov	rcx, qword ptr [r12 + 8]
	mov	byte ptr [rcx + rax], 36
	inc	qword ptr [r12 + 24]
.LBB12_271:
	mov	byte ptr [rbp - 336], 55
.LBB12_272:
	mov	rax, qword ptr [r12 + 24]
	cmp	rax, qword ptr [r12 + 16]
	jb	.LBB12_275
	mov	rax, qword ptr [r12]
	mov	rax, qword ptr [rax]
	lea	rcx, [rbp - 336]
	mov	qword ptr [rbp - 248], rcx
	mov	qword ptr [rbp - 240], 1
	mov	ecx, 1
	mov	r8d, 1
	lea	rdi, [rbp - 208]
	mov	rsi, r12
	lea	rdx, [rbp - 248]
	call	rax
	movzx	eax, word ptr [rbp - 200]
	test	ax, ax
	jne	.LBB12_557
	cmp	qword ptr [rbp - 208], 0
	je	.LBB12_272
	jmp	.LBB12_276
.LBB12_275:
	mov	rcx, qword ptr [r12 + 8]
	movzx	edx, byte ptr [rbp - 336]
	mov	byte ptr [rcx + rax], dl
	inc	qword ptr [r12 + 24]
.LBB12_276:
	xor	ebx, ebx
	.p2align	4
.LBB12_277:
	lea	rsi, [rbx + r13]
	mov	r14d, 2
	sub	r14, rbx
	mov	rdi, qword ptr [r12 + 24]
	lea	rax, [rdi + r14]
	cmp	rax, qword ptr [r12 + 16]
	ja	.LBB12_279
	add	rdi, qword ptr [r12 + 8]
	mov	rdx, r14
	call	memcpy@PLT
	add	qword ptr [r12 + 24], r14
	add	rbx, r14
	cmp	rbx, 2
	jb	.LBB12_277
	jmp	.LBB12_281
.LBB12_279:
	mov	rax, qword ptr [r12]
	mov	rax, qword ptr [rax]
	mov	qword ptr [rbp - 208], rsi
	mov	qword ptr [rbp - 200], r14
	mov	ecx, 1
	mov	r8d, 1
	lea	rdi, [rbp - 400]
	mov	rsi, r12
	lea	rdx, [rbp - 208]
	call	rax
	movzx	eax, word ptr [rbp - 392]
	mov	r14d, eax
	test	ax, ax
	jne	.LBB12_558
	mov	r14, qword ptr [rbp - 400]
	add	rbx, r14
	cmp	rbx, 2
	jb	.LBB12_277
.LBB12_281:
	movabs	rax, 23447365798220883
	mov	qword ptr [rbp - 400], rax
	xor	ebx, ebx
	.p2align	4
.LBB12_282:
	lea	rsi, [rbx + rbp]
	add	rsi, -400
	mov	r14, rbx
	xor	r14, 7
	mov	rdi, qword ptr [r12 + 24]
	lea	rax, [rdi + r14]
	cmp	rax, qword ptr [r12 + 16]
	ja	.LBB12_284
	add	rdi, qword ptr [r12 + 8]
	mov	rdx, r14
	call	memcpy@PLT
	add	qword ptr [r12 + 24], r14
	add	rbx, r14
	cmp	rbx, 7
	jb	.LBB12_282
	jmp	.LBB12_286
.LBB12_284:
	mov	rax, qword ptr [r12]
	mov	rax, qword ptr [rax]
	mov	qword ptr [rbp - 248], rsi
	mov	qword ptr [rbp - 240], r14
	mov	ecx, 1
	mov	r8d, 1
	lea	rdi, [rbp - 208]
	mov	rsi, r12
	lea	rdx, [rbp - 248]
	call	rax
	movzx	eax, word ptr [rbp - 200]
	test	ax, ax
	jne	.LBB12_557
	mov	r14, qword ptr [rbp - 208]
	add	rbx, r14
	cmp	rbx, 7
	jb	.LBB12_282
.LBB12_286:
	xor	ebx, ebx
	.p2align	4
.LBB12_287:
	lea	rsi, [rbx + r13]
	mov	r14d, 2
	sub	r14, rbx
	mov	rdi, qword ptr [r12 + 24]
	lea	rax, [rdi + r14]
	cmp	rax, qword ptr [r12 + 16]
	ja	.LBB12_289
	add	rdi, qword ptr [r12 + 8]
	mov	rdx, r14
	call	memcpy@PLT
	add	qword ptr [r12 + 24], r14
	add	rbx, r14
	cmp	rbx, 2
	jb	.LBB12_287
	jmp	.LBB12_291
.LBB12_289:
	mov	rax, qword ptr [r12]
	mov	rax, qword ptr [rax]
	mov	qword ptr [rbp - 208], rsi
	mov	qword ptr [rbp - 200], r14
	mov	ecx, 1
	mov	r8d, 1
	lea	rdi, [rbp - 400]
	mov	rsi, r12
	lea	rdx, [rbp - 208]
	call	rax
	movzx	eax, word ptr [rbp - 392]
	mov	r14d, eax
	test	ax, ax
	jne	.LBB12_558
	mov	r14, qword ptr [rbp - 400]
	add	rbx, r14
	cmp	rbx, 2
	jb	.LBB12_287
.LBB12_291:
	mov	rdi, r12
	mov	rsi, qword ptr [rbp - 56]
	mov	rdx, qword ptr [rbp - 72]
	call	serializer.CommandSerializer.serializeArgument__anon_4640
	test	ax, ax
	jne	.LBB12_557
	mov	rdi, r12
	mov	esi, 62
	call	serializer.CommandSerializer.serializeArgument__anon_4820
	test	ax, ax
	lea	rbx, [rbp - 208]
	lea	r14, [rbp - 112]
	jne	.LBB12_557
	mov	rdi, qword ptr [rbp - 3072]
	mov	rax, qword ptr [rdi]
	call	qword ptr [rax + 16]
	test	ax, ax
	mov	r12d, 1
	jne	.LBB12_609
	mov	rdi, qword ptr [rbp - 3088]
	mov	rcx, qword ptr [rbp - 3080]
	xor	eax, eax
	lock		cmpxchg	qword ptr [rbp - 3056], r12
	jne	.LBB12_312
.LBB12_295:
	mov	rdi, qword ptr [rbp - 3088]
	mov	rcx, qword ptr [rbp - 3080]
	mov	rax, qword ptr [rbp - 3048]
	.p2align	4
.LBB12_296:
	mov	rdx, rax
	and	rdx, -2
	lock		cmpxchg	qword ptr [rbp - 3048], rdx
	jne	.LBB12_296
	test	al, 1
	jne	.LBB12_300
	mov	rsi, rax
	mov	rdx, r15
	call	qword ptr [rcx + 80]
	mov	word ptr [rbp - 216], ax
	test	ax, ax
	jne	.LBB12_618
	jmp	.LBB12_300
	.p2align	4
.LBB12_299:
	mov	rdi, qword ptr [rbp - 3088]
	mov	rax, qword ptr [rbp - 3080]
	mov	rsi, r14
	mov	rdx, r15
	call	qword ptr [rax + 112]
.LBB12_300:
	movzx	eax, byte ptr [rbp - 96]
	and	eax, 3
	je	.LBB12_299
	cmp	eax, 2
	je	.LBB12_544
	mov	rcx, qword ptr [rbp - 3064]
	mov	rax, qword ptr [rcx + 24]
	cmp	rax, qword ptr [rcx + 32]
	jae	.LBB12_313
.LBB12_303:
	lea	rdx, [rbp - 128]
	mov	rsi, qword ptr [rcx + 8]
	movzx	esi, byte ptr [rsi + rax]
	inc	rax
	mov	qword ptr [rcx + 24], rax
	cmp	sil, 124
	jne	.LBB12_305
	mov	rdi, rbx
	mov	esi, 124
	call	types.reply.DynamicReply.Redis.Parser.parseAlloc__anon_7605
	movzx	ecx, word ptr [rbp - 144]
	jmp	.LBB12_306
.LBB12_305:
	movzx	esi, sil
	lea	rbx, [rbp - 400]
	mov	rdi, rbx
	call	types.reply.DynamicReply.Redis.Parser.parseAlloc__anon_7605
	movzx	ecx, word ptr [rbp - 336]
.LBB12_306:
	test	cx, cx
	jne	.LBB12_650
	vmovdqu	ymm0, ymmword ptr [rbx]
	vmovdqu	ymm1, ymmword ptr [rbx + 32]
	vmovdqu	ymmword ptr [rbp - 448], ymm1
	vmovdqu	ymmword ptr [rbp - 480], ymm0
	mov	rdi, qword ptr [rbp - 3088]
	mov	rcx, qword ptr [rbp - 3080]
	mov	rax, qword ptr [rbp - 3056]
	.p2align	4
.LBB12_308:
	mov	rdx, rax
	and	rdx, -2
	lock		cmpxchg	qword ptr [rbp - 3056], rdx
	jne	.LBB12_308
	test	al, 1
	je	.LBB12_317
	mov	rsi, qword ptr [rbp - 104]
	test	rsi, rsi
	je	.LBB12_318
.LBB12_311:
	movzx	eax, byte ptr [rbp - 3032]
	inc	al
	mov	byte ptr [rsi + 16], al
	mov	rdi, qword ptr [rbp - 3088]
	mov	rax, qword ptr [rbp - 3080]
	xor	edx, edx
	vzeroupper
	call	qword ptr [rax + 120]
	jmp	.LBB12_319
.LBB12_312:
	mov	rsi, rax
	lea	rdx, [rbp - 3056]
	call	qword ptr [rcx + 96]
	jmp	.LBB12_295
.LBB12_313:
	mov	rbx, rcx
	cmp	qword ptr [rcx + 16], rax
	je	.LBB12_530
.LBB12_314:
	lea	rax, [rip + __anon_14211]
	mov	qword ptr [rbp - 208], rax
	mov	qword ptr [rbp - 200], 0
.LBB12_315:
	mov	rcx, rbx
	mov	rax, qword ptr [rbx + 24]
	cmp	qword ptr [rbx + 32], rax
	ja	.LBB12_459
	mov	rax, qword ptr [rcx]
	mov	rsi, rcx
	mov	ecx, 1
	lea	rdi, [rbp - 400]
	lea	rdx, [rbp - 208]
	call	qword ptr [rax + 16]
	movzx	r12d, word ptr [rbp - 392]
	test	r12w, r12w
	je	.LBB12_315
	jmp	.LBB12_651
.LBB12_317:
	mov	rsi, rax
	lea	rdx, [rbp - 3056]
	vzeroupper
	call	qword ptr [rcx + 88]
	mov	rsi, qword ptr [rbp - 104]
	test	rsi, rsi
	jne	.LBB12_311
.LBB12_318:
	mov	qword ptr [rbp - 3040], 0
.LBB12_319:
	mov	rdi, qword ptr [rbp - 3088]
	mov	rcx, qword ptr [rbp - 3080]
	xor	eax, eax
	lock		cmpxchg	qword ptr [rbp - 3048], r12
	jne	.LBB12_457
.LBB12_320:
	mov	rdi, qword ptr [rbp - 3088]
	mov	rcx, qword ptr [rbp - 3080]
	xor	eax, eax
	lock		cmpxchg	qword ptr [rbp - 3056], r12
	jne	.LBB12_458
.LBB12_321:
	vmovdqu	ymm0, ymmword ptr [rbp - 480]
	vmovdqu	ymm1, ymmword ptr [rbp - 448]
	vmovdqu	ymmword ptr [rbp - 512], ymm1
	vmovdqu	ymmword ptr [rbp - 544], ymm0
	movzx	eax, byte ptr [rbp - 488]
	and	al, 15
	cmp	al, 8
	movabs	rdi, -6148914691236517206
	lea	r11, [rip + .L__unnamed_13]
	jne	.LBB12_587
	cmp	qword ptr [rbp - 520], 0
	je	.LBB12_588
	mov	rax, qword ptr [rbp - 528]
	mov	rcx, qword ptr [rax]
	movzx	edx, byte ptr [rcx + 56]
	and	dl, 15
	cmp	dl, 5
	jne	.LBB12_589
	mov	r8, qword ptr [rcx + 16]
	mov	rdx, qword ptr [rcx + 24]
	mov	rcx, qword ptr [rbp - 2832]
	test	rdx, rdx
	mov	r9, r8
	cmove	r9, rdi
	test	rcx, rcx
	je	.LBB12_326
	mov	rdi, qword ptr [rbp - 2840]
.LBB12_326:
	cmp	rdx, rcx
	jne	.LBB12_572
	mov	rsi, qword ptr [rax + 8]
	mov	rax, qword ptr [rsi + 16]
	mov	rcx, qword ptr [rsi + 24]
	movzx	esi, byte ptr [rsi + 56]
	test	rdx, rdx
	je	.LBB12_344
	cmp	r9, rdi
	je	.LBB12_344
	cmp	rdx, 16
	ja	.LBB12_334
	cmp	rdx, 4
	jae	.LBB12_336
	movzx	r9d, byte ptr [r8]
	cmp	r9b, byte ptr [rdi]
	jne	.LBB12_572
	movzx	r9d, byte ptr [rdi + rdx - 1]
	cmp	byte ptr [r8 + rdx - 1], r9b
	jne	.LBB12_572
	shr	rdx
	movzx	edi, byte ptr [rdi + rdx]
	cmp	byte ptr [r8 + rdx], dil
	je	.LBB12_344
	jmp	.LBB12_572
.LBB12_334:
	cmp	rdx, 33
	jae	.LBB12_340
	vmovdqu	xmm0, xmmword ptr [r8]
	vmovdqu	xmm1, xmmword ptr [r8 + rdx - 16]
	vpcmpneqb	k0, xmm0, xmmword ptr [rdi]
	vpcmpneqb	k1, xmm1, xmmword ptr [rdi + rdx - 16]
	kortestw	k0, k1
	je	.LBB12_344
	jmp	.LBB12_572
.LBB12_336:
	mov	r9d, dword ptr [rdi]
	cmp	r9d, dword ptr [r8]
	jne	.LBB12_572
	mov	r9d, dword ptr [r8 + rdx - 4]
	cmp	dword ptr [rdi + rdx - 4], r9d
	jne	.LBB12_572
	mov	r9d, edx
	shr	r9d
	and	r9d, 12
	mov	r10d, dword ptr [r8 + r9]
	cmp	dword ptr [rdi + r9], r10d
	jne	.LBB12_572
	add	rdx, -4
	sub	rdx, r9
	mov	r8d, dword ptr [r8 + rdx]
	cmp	dword ptr [rdi + rdx], r8d
	je	.LBB12_344
	jmp	.LBB12_572
.LBB12_340:
	lea	r8, [rdx - 1]
	shr	r8, 5
	xor	r10d, r10d
.LBB12_341:
	vmovdqu	ymm0, ymmword ptr [r9 + r10]
	vpxor	ymm0, ymm0, ymmword ptr [rdi + r10]
	vptest	ymm0, ymm0
	jne	.LBB12_572
	add	r10, 32
	dec	r8
	jne	.LBB12_341
	vmovdqu	ymm0, ymmword ptr [r9 + rdx - 32]
	vpxor	ymm0, ymm0, ymmword ptr [rdi + rdx - 32]
	vptest	ymm0, ymm0
	jne	.LBB12_572
.LBB12_344:
	and	sil, 15
	cmp	sil, 6
	jne	.LBB12_592
	test	rcx, rcx
	je	.LBB12_593
	movzx	ecx, byte ptr [rax + 56]
	and	cl, 15
	cmp	cl, 6
	jne	.LBB12_594
	cmp	qword ptr [rax + 24], 2
	jne	.LBB12_595
	mov	rcx, qword ptr [rax + 16]
	movzx	eax, byte ptr [rcx + 56]
	and	al, 15
	cmp	al, 5
	jne	.LBB12_597
	movzx	eax, byte ptr [rcx + 120]
	and	al, 15
	cmp	al, 6
	jne	.LBB12_598
	mov	rax, qword ptr [rcx + 88]
	test	al, 1
	jne	.LBB12_599
	test	rax, rax
	je	.LBB12_591
	mov	r12, qword ptr [rcx + 16]
	mov	rdx, qword ptr [rcx + 24]
	mov	rcx, qword ptr [rcx + 80]
	add	rcx, 120
	xor	r9d, r9d
	xor	r15d, r15d
	lea	rbx, [rip + __anon_14211]
	jmp	.LBB12_355
.LBB12_353:
	cmp	dword ptr [r8], 1752457584
	cmove	rbx, rdi
	cmove	r15, rsi
.LBB12_354:
	add	r9, 2
	sub	rcx, -128
	cmp	r9, rax
	jae	.LBB12_360
.LBB12_355:
	movzx	esi, byte ptr [rcx - 64]
	and	sil, 15
	cmp	sil, 5
	jne	.LBB12_556
	movzx	esi, byte ptr [rcx]
	and	sil, 15
	cmp	sil, 5
	jne	.LBB12_556
	cmp	qword ptr [rcx - 96], 4
	jne	.LBB12_354
	mov	r8, qword ptr [rcx - 104]
	mov	rdi, qword ptr [rcx - 40]
	mov	rsi, qword ptr [rcx - 32]
	cmp	r8, r11
	jne	.LBB12_353
	mov	rbx, rdi
	mov	r15, rsi
	jmp	.LBB12_354
.LBB12_360:
	test	r15, r15
	je	.LBB12_591
	xor	eax, eax
	test	al, al
	jne	.LBB12_602
	mov	r14, qword ptr [rbp + 8]
	test	rdx, rdx
	mov	qword ptr [rbp - 72], rdx
	mov	qword ptr [rbp - 56], r15
	je	.LBB12_364
	mov	rdi, qword ptr [rbp - 3256]
	mov	rax, qword ptr [rbp - 3248]
	mov	rsi, rdx
	xor	edx, edx
	mov	rcx, r14
	vzeroupper
	call	qword ptr [rax]
	mov	r15, qword ptr [rbp - 56]
	mov	rdx, qword ptr [rbp - 72]
	test	rax, rax
	jne	.LBB12_365
	jmp	.LBB12_602
.LBB12_364:
	mov	rax, -1
.LBB12_365:
	mov	qword ptr [rbp - 224], rax
	mov	rdi, rax
	mov	rsi, r12
	vzeroupper
	call	memcpy@PLT
	xor	eax, eax
	test	al, al
	jne	.LBB12_601
	mov	rdi, qword ptr [rbp - 3256]
	mov	rax, qword ptr [rbp - 3248]
	mov	rsi, r15
	xor	edx, edx
	mov	rcx, r14
	call	qword ptr [rax]
	test	rax, rax
	je	.LBB12_601
	mov	rdi, rax
	mov	qword ptr [rbp - 80], rax
	mov	rsi, rbx
	mov	rdx, r15
	call	memcpy@PLT
	vmovups	xmm0, xmmword ptr [rbp - 3256]
	vmovaps	xmmword ptr [rbp - 608], xmm0
	lea	rdi, [rbp - 544]
	lea	rsi, [rbp - 608]
	call	types.reply.DynamicReply.Redis.Parser.destroy__anon_7617
	cmp	byte ptr [rip + nanoid.prng_exists], 1
	jne	.LBB12_369
	vmovq	xmm0, qword ptr [rip + nanoid.prng.0]
	vmovq	xmm1, qword ptr [rip + nanoid.prng.1]
	vpunpcklqdq	xmm0, xmm1, xmm0
	vmovq	xmm1, qword ptr [rip + nanoid.prng.3]
	vmovq	xmm2, qword ptr [rip + nanoid.prng.2]
	vpunpcklqdq	xmm1, xmm2, xmm1
	vinserti128	ymm0, ymm1, xmm0, 1
	jmp	.LBB12_370
.LBB12_369:
	mov	esi, 8
	lea	rdi, [rbp - 400]
	call	arc4random_buf@PLT
	vmovdqa	ymm0, ymmword ptr [rip + .LCPI12_1]
	vpaddq	ymm0, ymm0, qword ptr [rbp - 400]{1to4}
	vpsrlq	ymm1, ymm0, 30
	vpxor	ymm0, ymm1, ymm0
	vpmullq	ymm0, ymm0, qword ptr [rip + .LCPI12_2]{1to4}
	vpsrlq	ymm1, ymm0, 27
	vpxor	ymm0, ymm1, ymm0
	vpmullq	ymm0, ymm0, qword ptr [rip + .LCPI12_3]{1to4}
	vpsrlq	ymm1, ymm0, 31
	vpxor	ymm0, ymm1, ymm0
	mov	byte ptr [rip + nanoid.prng_exists], 1
.LBB12_370:
	vextracti128	xmm1, ymm0, 1
	vmovq	rax, xmm1
	mov	rdx, rax
	shl	rdx, 17
	vmovq	rcx, xmm0
	vpextrq	rsi, xmm1, 1
	xor	rcx, rsi
	vpextrq	r8, xmm0, 1
	mov	r9, r8
	xor	r9, rax
	xor	rax, rcx
	xor	rcx, rdx
	rorx	rdi, r9, 19
	xor	r9, rsi
	mov	r10, rax
	shl	r10, 17
	xor	rcx, r9
	mov	rdx, rcx
	xor	rdx, rax
	mov	qword ptr [rbp - 64], rdx
	xor	rax, rdi
	xor	rcx, r10
	rorx	rdx, rax, 19
	mov	qword ptr [rbp - 48], rdx
	xor	rax, r9
	add	rdi, r9
	rorx	rdi, rdi, 41
	add	rdi, r9
	add	r8, rsi
	rorx	r15, r8, 41
	add	r15, rsi
	mov	r8, r15
	mov	r9, r15
	mov	r10, r15
	mov	r11, r15
	mov	ebx, r15d
	mov	r14d, r15d
	mov	r12d, r15d
	and	r15d, 63
	lea	rdx, [rip + __anon_5724]
	movzx	esi, byte ptr [r15 + rdx]
	mov	byte ptr [rbp - 544], sil
	mov	byte ptr [rbp - 480], sil
	mov	byte ptr [rbp - 112], sil
	shr	r12d, 8
	and	r12d, 63
	movzx	esi, byte ptr [r12 + rdx]
	mov	byte ptr [rbp - 543], sil
	mov	byte ptr [rbp - 479], sil
	mov	byte ptr [rbp - 111], sil
	mov	rsi, rdi
	shr	r14d, 16
	and	r14d, 63
	movzx	r14d, byte ptr [r14 + rdx]
	mov	byte ptr [rbp - 542], r14b
	mov	byte ptr [rbp - 478], r14b
	mov	byte ptr [rbp - 110], r14b
	mov	r14, rdi
	shr	ebx, 24
	and	ebx, 63
	movzx	ebx, byte ptr [rbx + rdx]
	mov	byte ptr [rbp - 541], bl
	mov	byte ptr [rbp - 477], bl
	mov	byte ptr [rbp - 109], bl
	mov	rbx, rdi
	shr	r11, 32
	and	r11d, 63
	movzx	r11d, byte ptr [r11 + rdx]
	mov	byte ptr [rbp - 540], r11b
	mov	byte ptr [rbp - 476], r11b
	mov	byte ptr [rbp - 108], r11b
	mov	r11, rdi
	shr	r10, 40
	and	r10d, 63
	movzx	r10d, byte ptr [r10 + rdx]
	mov	byte ptr [rbp - 539], r10b
	mov	byte ptr [rbp - 475], r10b
	mov	byte ptr [rbp - 107], r10b
	mov	r10d, edi
	shr	r9, 48
	and	r9d, 63
	movzx	r9d, byte ptr [r9 + rdx]
	mov	byte ptr [rbp - 538], r9b
	mov	byte ptr [rbp - 474], r9b
	mov	byte ptr [rbp - 106], r9b
	mov	r9d, edi
	shr	r8, 56
	and	r8d, 63
	movzx	r8d, byte ptr [r8 + rdx]
	mov	byte ptr [rbp - 537], r8b
	mov	byte ptr [rbp - 473], r8b
	mov	byte ptr [rbp - 105], r8b
	mov	r8d, edi
	and	edi, 63
	movzx	edi, byte ptr [rdi + rdx]
	mov	byte ptr [rbp - 536], dil
	mov	byte ptr [rbp - 472], dil
	mov	byte ptr [rbp - 104], dil
	shr	r8d, 8
	and	r8d, 63
	movzx	edi, byte ptr [r8 + rdx]
	mov	byte ptr [rbp - 535], dil
	mov	byte ptr [rbp - 471], dil
	mov	byte ptr [rbp - 103], dil
	shr	r9d, 16
	and	r9d, 63
	movzx	edi, byte ptr [r9 + rdx]
	mov	byte ptr [rbp - 534], dil
	mov	byte ptr [rbp - 470], dil
	mov	byte ptr [rbp - 102], dil
	mov	r12, qword ptr [rbp - 64]
	mov	rdi, r12
	xor	rcx, rax
	shr	r10d, 24
	and	r10d, 63
	movzx	r8d, byte ptr [r10 + rdx]
	mov	byte ptr [rbp - 533], r8b
	mov	byte ptr [rbp - 469], r8b
	mov	byte ptr [rbp - 101], r8b
	mov	r8, rcx
	xor	r8, r12
	mov	r9, qword ptr [rbp - 48]
	xor	r12, r9
	add	r9, rax
	rorx	r15, r9, 41
	add	r15, rax
	shr	r11, 32
	and	r11d, 63
	movzx	r9d, byte ptr [r11 + rdx]
	mov	byte ptr [rbp - 532], r9b
	mov	byte ptr [rbp - 468], r9b
	mov	byte ptr [rbp - 100], r9b
	mov	r9, r15
	shr	rbx, 40
	and	ebx, 63
	movzx	r10d, byte ptr [rbx + rdx]
	mov	byte ptr [rbp - 531], r10b
	mov	byte ptr [rbp - 467], r10b
	mov	byte ptr [rbp - 99], r10b
	mov	r10d, r15d
	shr	r14, 48
	and	r14d, 63
	movzx	r11d, byte ptr [r14 + rdx]
	mov	byte ptr [rbp - 530], r11b
	mov	byte ptr [rbp - 466], r11b
	mov	byte ptr [rbp - 98], r11b
	mov	r11d, r15d
	shr	rsi, 56
	and	esi, 63
	movzx	esi, byte ptr [rsi + rdx]
	mov	byte ptr [rbp - 529], sil
	mov	byte ptr [rbp - 465], sil
	mov	byte ptr [rbp - 97], sil
	mov	esi, r15d
	and	r15d, 63
	movzx	ebx, byte ptr [r15 + rdx]
	mov	byte ptr [rbp - 528], bl
	mov	byte ptr [rbp - 464], bl
	mov	byte ptr [rbp - 96], bl
	shr	esi, 8
	and	esi, 63
	movzx	esi, byte ptr [rsi + rdx]
	mov	byte ptr [rbp - 527], sil
	mov	byte ptr [rbp - 463], sil
	mov	byte ptr [rbp - 95], sil
	shr	r11d, 16
	and	r11d, 63
	movzx	esi, byte ptr [r11 + rdx]
	mov	byte ptr [rbp - 526], sil
	mov	byte ptr [rbp - 462], sil
	mov	byte ptr [rbp - 94], sil
	shr	r10d, 24
	and	r10d, 63
	movzx	esi, byte ptr [r10 + rdx]
	mov	byte ptr [rbp - 525], sil
	mov	byte ptr [rbp - 461], sil
	mov	byte ptr [rbp - 93], sil
	shr	r9, 32
	and	r9d, 63
	movzx	esi, byte ptr [r9 + rdx]
	mov	byte ptr [rbp - 524], sil
	mov	byte ptr [rbp - 460], sil
	mov	byte ptr [rbp - 92], sil
	shl	rdi, 17
	mov	qword ptr [rip + nanoid.prng.1], r8
	mov	rdx, r12
	rorx	rsi, r12, 19
	xor	rdx, rax
	mov	qword ptr [rip + nanoid.prng.0], rdx
	xor	rcx, rdi
	mov	qword ptr [rip + nanoid.prng.2], rcx
	mov	qword ptr [rip + nanoid.prng.3], rsi
	mov	r14, qword ptr [rbp - 2824]
	mov	rsi, qword ptr [rbp - 2816]
	mov	rdi, qword ptr [rbp - 3088]
	mov	rcx, qword ptr [rbp - 3080]
	mov	rax, qword ptr [rbp - 3056]
	.p2align	4
.LBB12_371:
	mov	rdx, rax
	and	rdx, -2
	lock		cmpxchg	qword ptr [rbp - 3056], rdx
	jne	.LBB12_371
	test	al, 1
	mov	rdx, qword ptr [rbp - 72]
	mov	r8, qword ptr [rbp - 56]
	lea	rbx, [rbp - 208]
	je	.LBB12_460
.LBB12_373:
	cmp	byte ptr [rbp - 3032], 1
	je	.LBB12_605
	mov	rax, qword ptr [rbp - 3040]
	test	rax, rax
	sete	byte ptr [rbp - 192]
	vpxor	xmm0, xmm0, xmm0
	vmovdqa	xmmword ptr [rbp - 208], xmm0
	je	.LBB12_376
	mov	qword ptr [rax + 8], rbx
.LBB12_376:
	mov	qword ptr [rbp - 3040], rbx
	mov	rbx, qword ptr [rbp - 3072]
.LBB12_377:
	mov	rax, qword ptr [rbx + 24]
	cmp	rax, qword ptr [rbx + 16]
	jb	.LBB12_380
	mov	r12, rsi
	mov	r15, r14
	mov	rax, qword ptr [rbx]
	mov	rax, qword ptr [rax]
	lea	rcx, [rip + __anon_7087]
	mov	qword ptr [rbp - 128], rcx
	mov	qword ptr [rbp - 120], 1
	mov	ecx, 1
	mov	r8d, 1
	lea	rdi, [rbp - 400]
	mov	rsi, rbx
	lea	rdx, [rbp - 128]
	vzeroupper
	call	rax
	movzx	eax, word ptr [rbp - 392]
	mov	r14d, eax
	test	ax, ax
	jne	.LBB12_664
	cmp	qword ptr [rbp - 400], 0
	mov	r14, r15
	mov	rsi, r12
	je	.LBB12_377
	jmp	.LBB12_381
.LBB12_380:
	mov	rcx, qword ptr [rbx + 8]
	mov	byte ptr [rcx + rax], 42
	inc	qword ptr [rbx + 24]
.LBB12_381:
	mov	qword ptr [rbp - 48], rsi
	mov	r15, r14
	mov	byte ptr [rbp - 336], 52
	mov	edx, 1
	mov	rdi, rbx
	lea	rsi, [rbp - 336]
	vzeroupper
	call	Io.Writer.alignBufferOptions
	test	ax, ax
	jne	.LBB12_663
	xor	r12d, r12d
	.p2align	4
.LBB12_383:
	lea	rsi, [r12 + r13]
	mov	r14d, 2
	sub	r14, r12
	mov	rdi, qword ptr [rbx + 24]
	lea	rax, [rdi + r14]
	cmp	rax, qword ptr [rbx + 16]
	ja	.LBB12_385
	add	rdi, qword ptr [rbx + 8]
	mov	rdx, r14
	call	memcpy@PLT
	add	qword ptr [rbx + 24], r14
	add	r12, r14
	cmp	r12, 2
	jb	.LBB12_383
	jmp	.LBB12_387
.LBB12_385:
	mov	rax, qword ptr [rbx]
	mov	rax, qword ptr [rax]
	mov	qword ptr [rbp - 128], rsi
	mov	qword ptr [rbp - 120], r14
	mov	ecx, 1
	mov	r8d, 1
	lea	rdi, [rbp - 400]
	mov	rsi, rbx
	lea	rdx, [rbp - 128]
	call	rax
	movzx	eax, word ptr [rbp - 392]
	mov	r14d, eax
	test	ax, ax
	jne	.LBB12_664
	mov	r14, qword ptr [rbp - 400]
	add	r12, r14
	cmp	r12, 2
	jb	.LBB12_383
.LBB12_387:
	mov	rdi, rbx
	lea	rsi, [rip + .L__unnamed_14]
	call	serializer.CommandSerializer.serializeArgument__anon_4626
	test	ax, ax
	jne	.LBB12_663
	mov	rdi, rbx
	lea	rsi, [rip + .L__unnamed_15]
	call	serializer.CommandSerializer.serializeArgument__anon_5839
	test	ax, ax
	jne	.LBB12_663
	mov	rdi, rbx
	mov	rsi, qword ptr [rbp - 80]
	mov	rdx, qword ptr [rbp - 56]
	call	serializer.CommandSerializer.serializeArgument__anon_4640
	test	ax, ax
	jne	.LBB12_663
	mov	rdi, rbx
	lea	rsi, [rbp - 544]
	call	serializer.CommandSerializer.serializeArgument__anon_5849
	test	ax, ax
	jne	.LBB12_663
	mov	rbx, qword ptr [rbp - 3072]
.LBB12_392:
	mov	rax, qword ptr [rbx + 24]
	cmp	rax, qword ptr [rbx + 16]
	jb	.LBB12_395
	mov	rax, qword ptr [rbx]
	mov	rax, qword ptr [rax]
	lea	rcx, [rip + __anon_7087]
	mov	qword ptr [rbp - 128], rcx
	mov	qword ptr [rbp - 120], 1
	mov	ecx, 1
	mov	r8d, 1
	lea	rdi, [rbp - 400]
	mov	rsi, rbx
	lea	rdx, [rbp - 128]
	call	rax
	movzx	eax, word ptr [rbp - 392]
	mov	r14d, eax
	test	ax, ax
	jne	.LBB12_674
	cmp	qword ptr [rbp - 400], 0
	je	.LBB12_392
	jmp	.LBB12_396
.LBB12_395:
	mov	rcx, qword ptr [rbx + 8]
	mov	byte ptr [rcx + rax], 42
	inc	qword ptr [rbx + 24]
.LBB12_396:
	mov	byte ptr [rbp - 336], 52
	mov	edx, 1
	mov	rdi, rbx
	lea	rsi, [rbp - 336]
	call	Io.Writer.alignBufferOptions
	test	ax, ax
	jne	.LBB12_673
	xor	r12d, r12d
	.p2align	4
.LBB12_398:
	lea	rsi, [r12 + r13]
	mov	r14d, 2
	sub	r14, r12
	mov	rdi, qword ptr [rbx + 24]
	lea	rax, [rdi + r14]
	cmp	rax, qword ptr [rbx + 16]
	ja	.LBB12_400
	add	rdi, qword ptr [rbx + 8]
	mov	rdx, r14
	call	memcpy@PLT
	add	qword ptr [rbx + 24], r14
	add	r12, r14
	cmp	r12, 2
	jb	.LBB12_398
	jmp	.LBB12_402
.LBB12_400:
	mov	rax, qword ptr [rbx]
	mov	rax, qword ptr [rax]
	mov	qword ptr [rbp - 128], rsi
	mov	qword ptr [rbp - 120], r14
	mov	ecx, 1
	mov	r8d, 1
	lea	rdi, [rbp - 400]
	mov	rsi, rbx
	lea	rdx, [rbp - 128]
	call	rax
	movzx	eax, word ptr [rbp - 392]
	mov	r14d, eax
	test	ax, ax
	jne	.LBB12_674
	mov	r14, qword ptr [rbp - 400]
	add	r12, r14
	cmp	r12, 2
	jb	.LBB12_398
.LBB12_402:
	mov	rdi, rbx
	lea	rsi, [rip + .L__unnamed_14]
	call	serializer.CommandSerializer.serializeArgument__anon_4626
	test	ax, ax
	jne	.LBB12_673
	mov	rdi, rbx
	lea	rsi, [rip + .L__unnamed_16]
	call	serializer.CommandSerializer.serializeArgument__anon_5839
	test	ax, ax
	jne	.LBB12_673
	mov	rdi, rbx
	lea	rsi, [rbp - 480]
	call	serializer.CommandSerializer.serializeArgument__anon_5849
	test	ax, ax
	jne	.LBB12_673
	mov	rdi, rbx
	mov	rsi, qword ptr [rbp - 80]
	mov	rdx, qword ptr [rbp - 56]
	call	serializer.CommandSerializer.serializeArgument__anon_4640
	test	ax, ax
	jne	.LBB12_673
	mov	rbx, qword ptr [rbp - 3072]
.LBB12_407:
	mov	rax, qword ptr [rbx + 24]
	cmp	rax, qword ptr [rbx + 16]
	jb	.LBB12_410
	mov	rax, qword ptr [rbx]
	mov	rax, qword ptr [rax]
	lea	rcx, [rip + __anon_7087]
	mov	qword ptr [rbp - 128], rcx
	mov	qword ptr [rbp - 120], 1
	mov	ecx, 1
	mov	r8d, 1
	lea	rdi, [rbp - 400]
	mov	rsi, rbx
	lea	rdx, [rbp - 128]
	call	rax
	movzx	eax, word ptr [rbp - 392]
	mov	r14d, eax
	test	ax, ax
	jne	.LBB12_630
	cmp	qword ptr [rbp - 400], 0
	je	.LBB12_407
	jmp	.LBB12_411
.LBB12_410:
	mov	rcx, qword ptr [rbx + 8]
	mov	byte ptr [rcx + rax], 42
	inc	qword ptr [rbx + 24]
.LBB12_411:
	mov	byte ptr [rbp - 336], 55
	mov	edx, 1
	mov	rdi, rbx
	lea	rsi, [rbp - 336]
	call	Io.Writer.alignBufferOptions
	test	ax, ax
	jne	.LBB12_629
	xor	r12d, r12d
	.p2align	4
.LBB12_413:
	lea	rsi, [r12 + r13]
	mov	r14d, 2
	sub	r14, r12
	mov	rdi, qword ptr [rbx + 24]
	lea	rax, [rdi + r14]
	cmp	rax, qword ptr [rbx + 16]
	ja	.LBB12_415
	add	rdi, qword ptr [rbx + 8]
	mov	rdx, r14
	call	memcpy@PLT
	add	qword ptr [rbx + 24], r14
	add	r12, r14
	cmp	r12, 2
	jb	.LBB12_413
	jmp	.LBB12_417
.LBB12_415:
	mov	rax, qword ptr [rbx]
	mov	rax, qword ptr [rax]
	mov	qword ptr [rbp - 128], rsi
	mov	qword ptr [rbp - 120], r14
	mov	ecx, 1
	mov	r8d, 1
	lea	rdi, [rbp - 400]
	mov	rsi, rbx
	lea	rdx, [rbp - 128]
	call	rax
	movzx	eax, word ptr [rbp - 392]
	mov	r14d, eax
	test	ax, ax
	jne	.LBB12_630
	mov	r14, qword ptr [rbp - 400]
	add	r12, r14
	cmp	r12, 2
	jb	.LBB12_413
.LBB12_417:
	mov	rdi, rbx
	lea	rsi, [rip + .L__unnamed_17]
	call	serializer.CommandSerializer.serializeArgument__anon_4626
	test	ax, ax
	jne	.LBB12_629
	mov	rdi, rbx
	mov	rsi, r15
	mov	rdx, qword ptr [rbp - 48]
	call	serializer.CommandSerializer.serializeArgument__anon_4640
	test	ax, ax
	jne	.LBB12_629
	mov	rdi, rbx
	mov	esi, 42
	call	serializer.CommandSerializer.serializeArgument__anon_4820
	test	ax, ax
	jne	.LBB12_629
	mov	rdi, rbx
	lea	rsi, [rip + .L__unnamed_13]
	call	serializer.CommandSerializer.serializeArgument__anon_4626
	test	ax, ax
	jne	.LBB12_629
	mov	rdi, rbx
	mov	rsi, qword ptr [rbp - 80]
	mov	rdx, qword ptr [rbp - 56]
	call	serializer.CommandSerializer.serializeArgument__anon_4640
	test	ax, ax
	jne	.LBB12_629
.LBB12_422:
	mov	rax, qword ptr [rbx + 24]
	cmp	rax, qword ptr [rbx + 16]
	jb	.LBB12_425
	mov	rax, qword ptr [rbx]
	mov	rax, qword ptr [rax]
	lea	rcx, [rip + __anon_7133]
	mov	qword ptr [rbp - 128], rcx
	mov	qword ptr [rbp - 120], 1
	mov	ecx, 1
	mov	r8d, 1
	lea	rdi, [rbp - 400]
	mov	rsi, rbx
	lea	rdx, [rbp - 128]
	call	rax
	movzx	eax, word ptr [rbp - 392]
	mov	r14d, eax
	test	ax, ax
	jne	.LBB12_630
	cmp	qword ptr [rbp - 400], 0
	je	.LBB12_422
	jmp	.LBB12_426
.LBB12_425:
	mov	rcx, qword ptr [rbx + 8]
	mov	byte ptr [rcx + rax], 36
	inc	qword ptr [rbx + 24]
.LBB12_426:
	mov	byte ptr [rbp - 336], 50
	mov	edx, 1
	mov	rdi, rbx
	lea	rsi, [rbp - 336]
	call	Io.Writer.alignBufferOptions
	test	ax, ax
	jne	.LBB12_629
	xor	r12d, r12d
	.p2align	4
.LBB12_428:
	lea	rsi, [r12 + r13]
	mov	r14d, 2
	sub	r14, r12
	mov	rdi, qword ptr [rbx + 24]
	lea	rax, [rdi + r14]
	cmp	rax, qword ptr [rbx + 16]
	ja	.LBB12_430
	add	rdi, qword ptr [rbx + 8]
	mov	rdx, r14
	call	memcpy@PLT
	add	qword ptr [rbx + 24], r14
	add	r12, r14
	cmp	r12, 2
	jb	.LBB12_428
	jmp	.LBB12_432
.LBB12_430:
	mov	rax, qword ptr [rbx]
	mov	rax, qword ptr [rax]
	mov	qword ptr [rbp - 128], rsi
	mov	qword ptr [rbp - 120], r14
	mov	ecx, 1
	mov	r8d, 1
	lea	rdi, [rbp - 400]
	mov	rsi, rbx
	lea	rdx, [rbp - 128]
	call	rax
	movzx	eax, word ptr [rbp - 392]
	mov	r14d, eax
	test	ax, ax
	jne	.LBB12_630
	mov	r14, qword ptr [rbp - 400]
	add	r12, r14
	cmp	r12, 2
	jb	.LBB12_428
.LBB12_432:
	mov	byte ptr [rbp - 398], 0
	mov	word ptr [rbp - 400], 25705
	mov	edx, 2
	mov	rdi, rbx
	lea	rsi, [rbp - 400]
	call	Io.Writer.alignBufferOptions
	test	ax, ax
	jne	.LBB12_629
	xor	r12d, r12d
	lea	r15, [rbp - 3048]
	.p2align	4
.LBB12_434:
	lea	rsi, [r12 + r13]
	mov	r14d, 2
	sub	r14, r12
	mov	rdi, qword ptr [rbx + 24]
	lea	rax, [rdi + r14]
	cmp	rax, qword ptr [rbx + 16]
	ja	.LBB12_436
	add	rdi, qword ptr [rbx + 8]
	mov	rdx, r14
	call	memcpy@PLT
	add	qword ptr [rbx + 24], r14
	add	r12, r14
	cmp	r12, 2
	jb	.LBB12_434
	jmp	.LBB12_438
.LBB12_436:
	mov	rax, qword ptr [rbx]
	mov	rax, qword ptr [rax]
	mov	qword ptr [rbp - 128], rsi
	mov	qword ptr [rbp - 120], r14
	mov	ecx, 1
	mov	r8d, 1
	lea	rdi, [rbp - 400]
	mov	rsi, rbx
	lea	rdx, [rbp - 128]
	call	rax
	movzx	eax, word ptr [rbp - 392]
	mov	r14d, eax
	test	ax, ax
	jne	.LBB12_630
	mov	r14, qword ptr [rbp - 400]
	lea	r15, [rbp - 3048]
	add	r12, r14
	cmp	r12, 2
	jb	.LBB12_434
.LBB12_438:
	mov	rdi, rbx
	lea	r14, [rbp - 112]
	mov	rsi, r14
	call	serializer.CommandSerializer.serializeArgument__anon_5849
	test	ax, ax
	jne	.LBB12_629
	mov	rdi, qword ptr [rbp - 3072]
	mov	rax, qword ptr [rdi]
	call	qword ptr [rax + 16]
	test	ax, ax
	lea	rbx, [rbp - 208]
	mov	edx, 1
	jne	.LBB12_722
	mov	rdi, qword ptr [rbp - 3088]
	mov	rcx, qword ptr [rbp - 3080]
	xor	eax, eax
	lock		cmpxchg	qword ptr [rbp - 3056], rdx
	jne	.LBB12_461
.LBB12_441:
	mov	rdi, qword ptr [rbp - 3088]
	mov	rcx, qword ptr [rbp - 3080]
	mov	rax, qword ptr [rbp - 3048]
	.p2align	4
.LBB12_442:
	mov	rdx, rax
	and	rdx, -2
	lock		cmpxchg	qword ptr [rbp - 3048], rdx
	jne	.LBB12_442
	test	al, 1
	jne	.LBB12_446
	mov	rsi, rax
	mov	rdx, r15
	call	qword ptr [rcx + 80]
	test	ax, ax
	jne	.LBB12_731
	jmp	.LBB12_446
.LBB12_445:
	mov	rdi, qword ptr [rbp - 3088]
	mov	rax, qword ptr [rbp - 3080]
	mov	rsi, rbx
	mov	rdx, r15
	call	qword ptr [rax + 112]
.LBB12_446:
	movzx	eax, byte ptr [rbp - 192]
	and	eax, 3
	je	.LBB12_445
	cmp	eax, 2
	je	.LBB12_573
	mov	rsi, qword ptr [rbp - 3064]
	lea	rdi, [rbp - 592]
	call	parser.RESP3Parser.parse__anon_6007
	movzx	r12d, word ptr [rbp - 584]
	test	r12w, r12w
	jne	.LBB12_752
	mov	r12, qword ptr [rbp - 592]
	mov	rsi, qword ptr [rbp - 3064]
	lea	rdi, [rbp - 608]
	call	parser.RESP3Parser.parse__anon_6007
	movzx	eax, word ptr [rbp - 600]
	test	ax, ax
	jne	.LBB12_761
	mov	rax, qword ptr [rbp - 608]
	mov	qword ptr [rbp - 48], rax
	mov	rsi, qword ptr [rbp - 3064]
	mov	rax, qword ptr [rsi + 24]
	cmp	rax, qword ptr [rsi + 32]
	jae	.LBB12_462
.LBB12_451:
	mov	rcx, qword ptr [rsi + 8]
	movzx	edi, byte ptr [rcx + rax]
	inc	rax
	mov	qword ptr [rsi + 24], rax
	call	parser.void.VoidParser.discardOne
	test	ax, ax
	jne	.LBB12_825
	mov	rdi, qword ptr [rbp - 3088]
	mov	rcx, qword ptr [rbp - 3080]
	mov	rax, qword ptr [rbp - 3056]
.LBB12_453:
	mov	rdx, rax
	and	rdx, -2
	lock		cmpxchg	qword ptr [rbp - 3056], rdx
	jne	.LBB12_453
	test	al, 1
	je	.LBB12_466
	mov	rsi, qword ptr [rbp - 200]
	test	rsi, rsi
	je	.LBB12_467
.LBB12_456:
	movzx	eax, byte ptr [rbp - 3032]
	inc	al
	mov	byte ptr [rsi + 16], al
	mov	rdi, qword ptr [rbp - 3088]
	mov	rax, qword ptr [rbp - 3080]
	xor	edx, edx
	call	qword ptr [rax + 120]
	jmp	.LBB12_468
.LBB12_457:
	mov	rsi, rax
	mov	rdx, r15
	vzeroupper
	call	qword ptr [rcx + 96]
	jmp	.LBB12_320
.LBB12_458:
	mov	rsi, rax
	lea	rdx, [rbp - 3056]
	vzeroupper
	call	qword ptr [rcx + 96]
	jmp	.LBB12_321
.LBB12_459:
	lea	rbx, [rbp - 208]
	mov	r12d, 1
	jmp	.LBB12_303
.LBB12_460:
	mov	r15, rsi
	mov	rsi, rax
	lea	rdx, [rbp - 3056]
	vzeroupper
	call	qword ptr [rcx + 80]
	mov	rsi, r15
	mov	r8, qword ptr [rbp - 56]
	mov	rdx, qword ptr [rbp - 72]
	mov	r12d, eax
	test	ax, ax
	jne	.LBB12_746
	jmp	.LBB12_373
.LBB12_461:
	mov	rsi, rax
	lea	rdx, [rbp - 3056]
	call	qword ptr [rcx + 96]
	jmp	.LBB12_441
.LBB12_462:
	mov	rbx, rsi
	cmp	qword ptr [rsi + 16], rax
	je	.LBB12_531
.LBB12_463:
	lea	rax, [rip + __anon_14211]
	mov	qword ptr [rbp - 128], rax
	mov	qword ptr [rbp - 120], 0
.LBB12_464:
	mov	rsi, rbx
	mov	rax, qword ptr [rbx + 24]
	cmp	qword ptr [rbx + 32], rax
	ja	.LBB12_529
	mov	rax, qword ptr [rsi]
	mov	ecx, 1
	lea	rdi, [rbp - 400]
	lea	rdx, [rbp - 128]
	call	qword ptr [rax + 16]
	movzx	eax, word ptr [rbp - 392]
	mov	r14d, eax
	test	ax, ax
	je	.LBB12_464
	jmp	.LBB12_532
.LBB12_466:
	mov	rsi, rax
	lea	rdx, [rbp - 3056]
	call	qword ptr [rcx + 88]
	mov	rsi, qword ptr [rbp - 200]
	test	rsi, rsi
	jne	.LBB12_456
.LBB12_467:
	mov	qword ptr [rbp - 3040], 0
.LBB12_468:
	mov	rdi, qword ptr [rbp - 3088]
	mov	rcx, qword ptr [rbp - 3080]
	xor	eax, eax
	mov	r15d, 1
	lock		cmpxchg	qword ptr [rbp - 3048], r15
	jne	.LBB12_527
.LBB12_469:
	mov	rdi, qword ptr [rbp - 3088]
	mov	rcx, qword ptr [rbp - 3080]
	xor	eax, eax
	lock		cmpxchg	qword ptr [rbp - 3056], r15
	jne	.LBB12_528
.LBB12_470:
	mov	edx, 64
	lea	rdi, [rbp - 544]
	mov	rsi, rbx
	call	debug.lockStderrWriter
	mov	rbx, qword ptr [rbp - 544]
	mov	edx, 9
	mov	rdi, rbx
	lea	rsi, [rip + __anon_4157]
	call	Io.Writer.alignBufferOptions
	test	ax, ax
	jne	.LBB12_488
	xor	r15d, r15d
.LBB12_472:
	lea	rax, [rip + __anon_10873]
	lea	rsi, [rax + r15]
	mov	r14d, 21
	sub	r14, r15
	mov	rdi, qword ptr [rbx + 24]
	lea	rax, [rdi + r14]
	cmp	rax, qword ptr [rbx + 16]
	ja	.LBB12_474
	add	rdi, qword ptr [rbx + 8]
	mov	rdx, r14
	call	memcpy@PLT
	add	qword ptr [rbx + 24], r14
	add	r15, r14
	cmp	r15, 21
	jb	.LBB12_472
	jmp	.LBB12_476
.LBB12_474:
	mov	rax, qword ptr [rbx]
	mov	rax, qword ptr [rax]
	mov	qword ptr [rbp - 480], rsi
	mov	qword ptr [rbp - 472], r14
	mov	ecx, 1
	mov	r8d, 1
	lea	rdi, [rbp - 400]
	mov	rsi, rbx
	lea	rdx, [rbp - 480]
	call	rax
	cmp	word ptr [rbp - 392], 0
	lea	r14, [rbp - 112]
	jne	.LBB12_488
	mov	r14, qword ptr [rbp - 400]
	add	r15, r14
	cmp	r15, 21
	jb	.LBB12_472
.LBB12_476:
	mov	eax, 65
	cmp	r12, 100
	lea	r8, [rip + __anon_14355]
	jb	.LBB12_479
	mov	esi, 65
	movabs	r9, 2951479051793528259
.LBB12_478:
	lea	rax, [rsi - 2]
	mov	rdx, r12
	shr	rdx, 2
	mulx	rcx, rcx, r9
	shr	rcx, 2
	imul	rdx, rcx, 100
	mov	rdi, r12
	sub	rdi, rdx
	movzx	edx, word ptr [r8 + 2*rdi]
	mov	word ptr [rbp + rsi - 402], dx
	mov	rsi, rax
	cmp	r12, 9999
	mov	r12, rcx
	ja	.LBB12_478
	jmp	.LBB12_480
.LBB12_479:
	mov	rcx, r12
.LBB12_480:
	cmp	rcx, 9
	lea	r14, [rbp - 112]
	ja	.LBB12_482
	or	cl, 48
	mov	byte ptr [rbp + rax - 401], cl
	dec	rax
	jmp	.LBB12_483
.LBB12_482:
	movzx	ecx, word ptr [r8 + 2*rcx]
	mov	word ptr [rbp + rax - 402], cx
	add	rax, -2
.LBB12_483:
	lea	rsi, [rax + rbp]
	add	rsi, -400
	mov	edx, 65
	sub	rdx, rax
	mov	rdi, rbx
	call	Io.Writer.alignBufferOptions
	test	ax, ax
	jne	.LBB12_488
.LBB12_484:
	mov	rax, qword ptr [rbx + 24]
	cmp	rax, qword ptr [rbx + 16]
	jb	.LBB12_487
	mov	rax, qword ptr [rbx]
	mov	rax, qword ptr [rax]
	lea	rcx, [rip + __anon_8151]
	mov	qword ptr [rbp - 480], rcx
	mov	qword ptr [rbp - 472], 1
	mov	ecx, 1
	mov	r8d, 1
	lea	rdi, [rbp - 400]
	mov	rsi, rbx
	lea	rdx, [rbp - 480]
	call	rax
	cmp	word ptr [rbp - 392], 0
	jne	.LBB12_488
	cmp	qword ptr [rbp - 400], 0
	je	.LBB12_484
	jmp	.LBB12_488
.LBB12_487:
	mov	rcx, qword ptr [rbx + 8]
	mov	byte ptr [rcx + rax], 10
	inc	qword ptr [rbx + 24]
.LBB12_488:
	mov	rax, qword ptr [rip + Progress.stderr_file_writer+8]
	lea	r12, [rip + Progress.stderr_file_writer+8]
	mov	rdi, r12
	call	qword ptr [rax + 16]
	movabs	rax, -6148914691236517206
	mov	qword ptr [rip + Progress.stderr_file_writer+16], rax
	vpxor	xmm0, xmm0, xmm0
	vmovdqu	xmmword ptr [rip + Progress.stderr_file_writer+24], xmm0
	dec	qword ptr [rip + Progress.stderr_mutex]
	jne	.LBB12_490
	mov	dword ptr [rip + Progress.stderr_mutex+12], -1
	xor	eax, eax
	xchg	dword ptr [rip + Progress.stderr_mutex+8], eax
	cmp	eax, 3
	je	.LBB12_524
.LBB12_490:
	mov	edx, 64
	lea	rdi, [rbp - 544]
	lea	rsi, [rbp - 208]
	call	debug.lockStderrWriter
	mov	rbx, qword ptr [rbp - 544]
	mov	edx, 9
	mov	rdi, rbx
	lea	rsi, [rip + __anon_4157]
	call	Io.Writer.alignBufferOptions
	test	ax, ax
	jne	.LBB12_508
	xor	r15d, r15d
.LBB12_492:
	lea	rax, [rip + __anon_10919]
	lea	rsi, [rax + r15]
	mov	r14d, 21
	sub	r14, r15
	mov	rdi, qword ptr [rbx + 24]
	lea	rax, [rdi + r14]
	cmp	rax, qword ptr [rbx + 16]
	ja	.LBB12_494
	add	rdi, qword ptr [rbx + 8]
	mov	rdx, r14
	call	memcpy@PLT
	add	qword ptr [rbx + 24], r14
	add	r15, r14
	cmp	r15, 21
	jb	.LBB12_492
	jmp	.LBB12_496
.LBB12_494:
	mov	rax, qword ptr [rbx]
	mov	rax, qword ptr [rax]
	mov	qword ptr [rbp - 480], rsi
	mov	qword ptr [rbp - 472], r14
	mov	ecx, 1
	mov	r8d, 1
	lea	rdi, [rbp - 400]
	mov	rsi, rbx
	lea	rdx, [rbp - 480]
	call	rax
	cmp	word ptr [rbp - 392], 0
	lea	r14, [rbp - 112]
	jne	.LBB12_508
	mov	r14, qword ptr [rbp - 400]
	add	r15, r14
	cmp	r15, 21
	jb	.LBB12_492
.LBB12_496:
	mov	eax, 65
	mov	r10, qword ptr [rbp - 48]
	cmp	r10, 100
	lea	r8, [rip + __anon_14355]
	jb	.LBB12_499
	mov	esi, 65
	movabs	r9, 2951479051793528259
.LBB12_498:
	lea	rax, [rsi - 2]
	mov	rdx, r10
	shr	rdx, 2
	mulx	rcx, rcx, r9
	shr	rcx, 2
	imul	rdx, rcx, 100
	mov	rdi, r10
	sub	rdi, rdx
	movzx	edx, word ptr [r8 + 2*rdi]
	mov	word ptr [rbp + rsi - 402], dx
	mov	rsi, rax
	cmp	r10, 9999
	mov	r10, rcx
	ja	.LBB12_498
	jmp	.LBB12_500
.LBB12_499:
	mov	rcx, r10
.LBB12_500:
	cmp	rcx, 9
	lea	r14, [rbp - 112]
	ja	.LBB12_502
	or	cl, 48
	mov	byte ptr [rbp + rax - 401], cl
	dec	rax
	jmp	.LBB12_503
.LBB12_502:
	movzx	ecx, word ptr [r8 + 2*rcx]
	mov	word ptr [rbp + rax - 402], cx
	add	rax, -2
.LBB12_503:
	lea	rsi, [rax + rbp]
	add	rsi, -400
	mov	edx, 65
	sub	rdx, rax
	mov	rdi, rbx
	call	Io.Writer.alignBufferOptions
	test	ax, ax
	jne	.LBB12_508
.LBB12_504:
	mov	rax, qword ptr [rbx + 24]
	cmp	rax, qword ptr [rbx + 16]
	jb	.LBB12_507
	mov	rax, qword ptr [rbx]
	mov	rax, qword ptr [rax]
	lea	rcx, [rip + __anon_8151]
	mov	qword ptr [rbp - 480], rcx
	mov	qword ptr [rbp - 472], 1
	mov	ecx, 1
	mov	r8d, 1
	lea	rdi, [rbp - 400]
	mov	rsi, rbx
	lea	rdx, [rbp - 480]
	call	rax
	cmp	word ptr [rbp - 392], 0
	jne	.LBB12_508
	cmp	qword ptr [rbp - 400], 0
	je	.LBB12_504
	jmp	.LBB12_508
.LBB12_507:
	mov	rcx, qword ptr [rbx + 8]
	mov	byte ptr [rcx + rax], 10
	inc	qword ptr [rbx + 24]
.LBB12_508:
	mov	rax, qword ptr [rip + Progress.stderr_file_writer+8]
	mov	rdi, r12
	call	qword ptr [rax + 16]
	movabs	rax, -6148914691236517206
	mov	qword ptr [rip + Progress.stderr_file_writer+16], rax
	vpxor	xmm0, xmm0, xmm0
	vmovdqu	xmmword ptr [rip + Progress.stderr_file_writer+24], xmm0
	dec	qword ptr [rip + Progress.stderr_mutex]
	jne	.LBB12_510
	mov	dword ptr [rip + Progress.stderr_mutex+12], -1
	xor	eax, eax
	xchg	dword ptr [rip + Progress.stderr_mutex+8], eax
	cmp	eax, 3
	je	.LBB12_525
.LBB12_510:
	mov	edx, 64
	lea	rdi, [rbp - 544]
	lea	rsi, [rbp - 400]
	call	debug.lockStderrWriter
	mov	rbx, qword ptr [rbp - 544]
	mov	edx, 9
	mov	rdi, rbx
	lea	rsi, [rip + __anon_4157]
	call	Io.Writer.alignBufferOptions
	test	ax, ax
	jne	.LBB12_521
	xor	r15d, r15d
.LBB12_512:
	lea	rax, [rip + __anon_10969]
	lea	rsi, [rax + r15]
	mov	r14d, 12
	sub	r14, r15
	mov	rdi, qword ptr [rbx + 24]
	lea	rax, [rdi + r14]
	cmp	rax, qword ptr [rbx + 16]
	ja	.LBB12_514
	add	rdi, qword ptr [rbx + 8]
	mov	rdx, r14
	call	memcpy@PLT
	add	qword ptr [rbx + 24], r14
	add	r15, r14
	cmp	r15, 12
	jb	.LBB12_512
	jmp	.LBB12_516
.LBB12_514:
	mov	rax, qword ptr [rbx]
	mov	rax, qword ptr [rax]
	mov	qword ptr [rbp - 480], rsi
	mov	qword ptr [rbp - 472], r14
	mov	ecx, 1
	mov	r8d, 1
	lea	rdi, [rbp - 208]
	mov	rsi, rbx
	lea	rdx, [rbp - 480]
	call	rax
	cmp	word ptr [rbp - 200], 0
	lea	r14, [rbp - 112]
	jne	.LBB12_521
	mov	r14, qword ptr [rbp - 208]
	add	r15, r14
	cmp	r15, 12
	jb	.LBB12_512
.LBB12_516:
	mov	edx, 4
	mov	rdi, rbx
	lea	rsi, [rip + __anon_13780]
	call	Io.Writer.alignBufferOptions
	test	ax, ax
	lea	r14, [rbp - 112]
	jne	.LBB12_521
.LBB12_517:
	mov	rax, qword ptr [rbx + 24]
	cmp	rax, qword ptr [rbx + 16]
	jb	.LBB12_520
	mov	rax, qword ptr [rbx]
	mov	rax, qword ptr [rax]
	lea	rcx, [rip + __anon_8151]
	mov	qword ptr [rbp - 480], rcx
	mov	qword ptr [rbp - 472], 1
	mov	ecx, 1
	mov	r8d, 1
	lea	rdi, [rbp - 208]
	mov	rsi, rbx
	lea	rdx, [rbp - 480]
	call	rax
	cmp	word ptr [rbp - 200], 0
	jne	.LBB12_521
	cmp	qword ptr [rbp - 208], 0
	je	.LBB12_517
	jmp	.LBB12_521
.LBB12_520:
	mov	rcx, qword ptr [rbx + 8]
	mov	byte ptr [rcx + rax], 10
	inc	qword ptr [rbx + 24]
.LBB12_521:
	mov	rax, qword ptr [rip + Progress.stderr_file_writer+8]
	mov	rdi, r12
	call	qword ptr [rax + 16]
	movabs	rax, -6148914691236517206
	mov	qword ptr [rip + Progress.stderr_file_writer+16], rax
	vpxor	xmm0, xmm0, xmm0
	vmovdqu	xmmword ptr [rip + Progress.stderr_file_writer+24], xmm0
	dec	qword ptr [rip + Progress.stderr_mutex]
	jne	.LBB12_523
	mov	dword ptr [rip + Progress.stderr_mutex+12], -1
	xor	eax, eax
	xchg	dword ptr [rip + Progress.stderr_mutex+8], eax
	cmp	eax, 3
	je	.LBB12_526
.LBB12_523:
	cmp	byte ptr [rbp - 660], 0
	lea	r15, [rbp - 3048]
	mov	rax, qword ptr [rbp - 72]
	mov	rcx, qword ptr [rbp - 56]
	mov	rdx, qword ptr [rbp - 224]
	jne	.LBB12_214
	jmp	.LBB12_607
.LBB12_524:
	lea	rdi, [rip + Progress.stderr_mutex+8]
	mov	esi, 1
	call	Thread.Futex.wake
	jmp	.LBB12_490
.LBB12_525:
	lea	rdi, [rip + Progress.stderr_mutex+8]
	mov	esi, 1
	call	Thread.Futex.wake
	jmp	.LBB12_510
.LBB12_526:
	lea	rdi, [rip + Progress.stderr_mutex+8]
	mov	esi, 1
	call	Thread.Futex.wake
	jmp	.LBB12_523
.LBB12_527:
	mov	rsi, rax
	lea	rdx, [rbp - 3048]
	call	qword ptr [rcx + 96]
	jmp	.LBB12_469
.LBB12_528:
	mov	rsi, rax
	lea	rdx, [rbp - 3056]
	call	qword ptr [rcx + 96]
	jmp	.LBB12_470
.LBB12_529:
	lea	rbx, [rbp - 208]
	lea	r14, [rbp - 112]
	jmp	.LBB12_451
.LBB12_530:
	mov	rdi, rbx
	mov	rax, qword ptr [rbx]
	mov	esi, 1
	call	qword ptr [rax + 24]
	mov	r12d, eax
	test	ax, ax
	jne	.LBB12_651
	jmp	.LBB12_314
.LBB12_531:
	mov	rdi, rbx
	mov	rax, qword ptr [rbx]
	mov	esi, 1
	call	qword ptr [rax + 24]
	mov	r14d, eax
	test	ax, ax
	je	.LBB12_463
.LBB12_532:
	mov	rdi, qword ptr [rbp - 3088]
	mov	rcx, qword ptr [rbp - 3080]
	mov	edx, 1
	xor	eax, eax
	lock		cmpxchg	qword ptr [rbp - 3048], rdx
	jne	.LBB12_826
.LBB12_533:
	mov	rdi, qword ptr [rbp - 3088]
	mov	rcx, qword ptr [rbp - 3080]
	mov	rax, qword ptr [rbp - 3048]
.LBB12_534:
	mov	rdx, rax
	and	rdx, -2
	lock		cmpxchg	qword ptr [rbp - 3048], rdx
	jne	.LBB12_534
	test	al, 1
	je	.LBB12_827
	test	byte ptr [rbp - 192], 3
	jne	.LBB12_539
.LBB12_537:
	lea	rbx, [rbp - 208]
.LBB12_538:
	mov	rdi, qword ptr [rbp - 3088]
	mov	rax, qword ptr [rbp - 3080]
	mov	rsi, rbx
	mov	rdx, r15
	call	qword ptr [rax + 112]
	test	byte ptr [rbp - 192], 3
	je	.LBB12_538
.LBB12_539:
	mov	rdi, qword ptr [rbp - 3088]
	mov	rcx, qword ptr [rbp - 3080]
	mov	rax, qword ptr [rbp - 3056]
.LBB12_540:
	mov	rdx, rax
	and	rdx, -2
	lock		cmpxchg	qword ptr [rbp - 3056], rdx
	jne	.LBB12_540
	test	al, 1
	je	.LBB12_828
	mov	byte ptr [rbp - 3032], 1
	mov	rsi, qword ptr [rbp - 200]
	test	rsi, rsi
	je	.LBB12_829
.LBB12_543:
	mov	byte ptr [rsi + 16], 2
	mov	rdi, qword ptr [rbp - 3088]
	mov	rax, qword ptr [rbp - 3080]
	xor	edx, edx
	call	qword ptr [rax + 120]
	jmp	.LBB12_830
.LBB12_544:
	mov	rdi, qword ptr [rbp - 3088]
	mov	rcx, qword ptr [rbp - 3080]
	mov	edx, 1
	xor	eax, eax
	lock		cmpxchg	qword ptr [rbp - 3048], rdx
	jne	.LBB12_642
.LBB12_545:
	mov	rdi, qword ptr [rbp - 3088]
	mov	rcx, qword ptr [rbp - 3080]
	mov	rax, qword ptr [rbp - 3048]
	.p2align	4
.LBB12_546:
	mov	rdx, rax
	and	rdx, -2
	lock		cmpxchg	qword ptr [rbp - 3048], rdx
	jne	.LBB12_546
	test	al, 1
	je	.LBB12_643
	test	byte ptr [rbp - 96], 3
	jne	.LBB12_551
.LBB12_549:
	lea	rbx, [rbp - 112]
	.p2align	4
.LBB12_550:
	mov	rdi, qword ptr [rbp - 3088]
	mov	rax, qword ptr [rbp - 3080]
	mov	rsi, rbx
	mov	rdx, r15
	call	qword ptr [rax + 112]
	test	byte ptr [rbp - 96], 3
	je	.LBB12_550
.LBB12_551:
	mov	rdi, qword ptr [rbp - 3088]
	mov	rcx, qword ptr [rbp - 3080]
	mov	rax, qword ptr [rbp - 3056]
	.p2align	4
.LBB12_552:
	mov	rdx, rax
	and	rdx, -2
	lock		cmpxchg	qword ptr [rbp - 3056], rdx
	jne	.LBB12_552
	test	al, 1
	je	.LBB12_644
	mov	byte ptr [rbp - 3032], 1
	mov	rsi, qword ptr [rbp - 104]
	test	rsi, rsi
	je	.LBB12_645
.LBB12_555:
	mov	byte ptr [rsi + 16], 2
	mov	rdi, qword ptr [rbp - 3088]
	mov	rax, qword ptr [rbp - 3080]
	xor	edx, edx
	call	qword ptr [rax + 120]
	jmp	.LBB12_646
.LBB12_556:
	vmovups	xmm0, xmmword ptr [rbp - 3256]
	vmovaps	xmmword ptr [rbp - 3504], xmm0
	lea	rdi, [rbp - 544]
	lea	rsi, [rbp - 3504]
	vzeroupper
	call	types.reply.DynamicReply.Redis.Parser.destroy__anon_7617
	mov	r12w, 92
	jmp	.LBB12_604
.LBB12_557:
	mov	r14d, eax
.LBB12_558:
	mov	byte ptr [rbp - 3032], 1
	mov	rdi, qword ptr [rbp - 3088]
	mov	rcx, qword ptr [rbp - 3080]
	mov	edx, 1
	xor	eax, eax
	lock		cmpxchg	qword ptr [rbp - 3056], rdx
	jne	.LBB12_686
.LBB12_559:
	mov	rdi, qword ptr [rbp - 3088]
	mov	rcx, qword ptr [rbp - 3080]
	mov	rax, qword ptr [rbp - 3048]
	mov	r12d, r14d
	.p2align	4
.LBB12_560:
	mov	rdx, rax
	and	rdx, -2
	lock		cmpxchg	qword ptr [rbp - 3048], rdx
	jne	.LBB12_560
	test	al, 1
	je	.LBB12_687
	test	byte ptr [rbp - 96], 3
	jne	.LBB12_565
.LBB12_563:
	lea	rbx, [rbp - 112]
	.p2align	4
.LBB12_564:
	mov	rdi, qword ptr [rbp - 3088]
	mov	rax, qword ptr [rbp - 3080]
	mov	rsi, rbx
	mov	rdx, r15
	call	qword ptr [rax + 112]
	test	byte ptr [rbp - 96], 3
	je	.LBB12_564
.LBB12_565:
	mov	rdi, qword ptr [rbp - 3088]
	mov	rcx, qword ptr [rbp - 3080]
	mov	rax, qword ptr [rbp - 3056]
	.p2align	4
.LBB12_566:
	mov	rdx, rax
	and	rdx, -2
	lock		cmpxchg	qword ptr [rbp - 3056], rdx
	jne	.LBB12_566
	test	al, 1
	je	.LBB12_688
	mov	byte ptr [rbp - 3032], 1
	mov	rsi, qword ptr [rbp - 104]
	test	rsi, rsi
	je	.LBB12_689
.LBB12_569:
	mov	byte ptr [rsi + 16], 2
	mov	rdi, qword ptr [rbp - 3088]
	mov	rax, qword ptr [rbp - 3080]
	xor	edx, edx
	call	qword ptr [rax + 120]
	jmp	.LBB12_690
.LBB12_174:
	mov	byte ptr [r12 + r8], 1
	dec	r14d
	mov	dword ptr [rbp - 200], r14d
	inc	dword ptr [rbp - 196]
.LBB12_175:
	cmp	qword ptr [rbp - 568], 1
	mov	rdx, qword ptr [rbp - 72]
	mov	rsi, qword ptr [rbp - 232]
	je	.LBB12_177
	mov	rdi, qword ptr [rbp - 408]
	xor	ecx, ecx
	mov	r8, qword ptr [rbp - 64]
	mov	rax, qword ptr [rbp - 48]
	vzeroupper
	call	qword ptr [rax + 24]
.LBB12_177:
	lea	rdi, [rbp - 208]
	vzeroupper
	call	process.EnvMap.deinit
	mov	r12w, 1
	jmp	.LBB12_708
.LBB12_570:
	lea	rdi, [rip + Progress.stderr_mutex+8]
	mov	esi, 1
	call	Thread.Futex.wake
	cmp	byte ptr [rbp - 660], 0
	jne	.LBB12_213
.LBB12_571:
	mov	r12w, 83
	jmp	.LBB12_702
.LBB12_572:
	vmovups	xmm0, xmmword ptr [rbp - 3256]
	vmovaps	xmmword ptr [rbp - 3376], xmm0
	lea	rdi, [rbp - 544]
	lea	rsi, [rbp - 3376]
	jmp	.LBB12_590
.LBB12_573:
	mov	rdi, qword ptr [rbp - 3088]
	mov	rcx, qword ptr [rbp - 3080]
	mov	edx, 1
	xor	eax, eax
	lock		cmpxchg	qword ptr [rbp - 3048], rdx
	jne	.LBB12_739
.LBB12_574:
	mov	rdi, qword ptr [rbp - 3088]
	mov	rcx, qword ptr [rbp - 3080]
	mov	rax, qword ptr [rbp - 3048]
.LBB12_575:
	mov	rdx, rax
	and	rdx, -2
	lock		cmpxchg	qword ptr [rbp - 3048], rdx
	jne	.LBB12_575
	test	al, 1
	je	.LBB12_740
	test	byte ptr [rbp - 192], 3
	jne	.LBB12_580
.LBB12_578:
	lea	rbx, [rbp - 208]
.LBB12_579:
	mov	rdi, qword ptr [rbp - 3088]
	mov	rax, qword ptr [rbp - 3080]
	mov	rsi, rbx
	mov	rdx, r15
	call	qword ptr [rax + 112]
	test	byte ptr [rbp - 192], 3
	je	.LBB12_579
.LBB12_580:
	mov	rdi, qword ptr [rbp - 3088]
	mov	rcx, qword ptr [rbp - 3080]
	mov	rax, qword ptr [rbp - 3056]
.LBB12_581:
	mov	rdx, rax
	and	rdx, -2
	lock		cmpxchg	qword ptr [rbp - 3056], rdx
	jne	.LBB12_581
	test	al, 1
	je	.LBB12_741
	mov	byte ptr [rbp - 3032], 1
	mov	rsi, qword ptr [rbp - 200]
	test	rsi, rsi
	je	.LBB12_742
.LBB12_584:
	mov	byte ptr [rsi + 16], 2
	mov	rdi, qword ptr [rbp - 3088]
	mov	rax, qword ptr [rbp - 3080]
	xor	edx, edx
	call	qword ptr [rax + 120]
	jmp	.LBB12_743
.LBB12_585:
	mov	rdi, qword ptr [rbp - 3088]
	mov	rcx, qword ptr [rbp - 3080]
	mov	edx, 1
	xor	eax, eax
	lock		cmpxchg	qword ptr [rbp - 3056], rdx
	mov	r12w, 80
	je	.LBB12_692
	mov	rbx, rsi
	mov	rsi, rax
	lea	rdx, [rbp - 3056]
	jmp	.LBB12_721
.LBB12_587:
	vmovups	xmm0, xmmword ptr [rbp - 3256]
	vmovaps	xmmword ptr [rbp - 3328], xmm0
	lea	rdi, [rbp - 544]
	lea	rsi, [rbp - 3328]
	vzeroupper
	call	types.reply.DynamicReply.Redis.Parser.destroy__anon_7617
	mov	r12w, 84
	jmp	.LBB12_604
.LBB12_588:
	vmovups	xmm0, xmmword ptr [rbp - 3256]
	vmovaps	xmmword ptr [rbp - 3344], xmm0
	lea	rdi, [rbp - 544]
	lea	rsi, [rbp - 3344]
	vzeroupper
	call	types.reply.DynamicReply.Redis.Parser.destroy__anon_7617
	mov	r12w, 85
	jmp	.LBB12_604
.LBB12_589:
	vmovups	xmm0, xmmword ptr [rbp - 3256]
	vmovaps	xmmword ptr [rbp - 3360], xmm0
	lea	rdi, [rbp - 544]
	lea	rsi, [rbp - 3360]
.LBB12_590:
	vzeroupper
	call	types.reply.DynamicReply.Redis.Parser.destroy__anon_7617
	mov	r12w, 86
	jmp	.LBB12_604
.LBB12_591:
	vmovups	xmm0, xmmword ptr [rbp - 3256]
	vmovaps	xmmword ptr [rbp - 3520], xmm0
	lea	rdi, [rbp - 544]
	lea	rsi, [rbp - 3520]
	vzeroupper
	call	types.reply.DynamicReply.Redis.Parser.destroy__anon_7617
	mov	r12w, 93
	jmp	.LBB12_604
.LBB12_592:
	vmovups	xmm0, xmmword ptr [rbp - 3256]
	vmovaps	xmmword ptr [rbp - 3392], xmm0
	lea	rdi, [rbp - 544]
	lea	rsi, [rbp - 3392]
	vzeroupper
	call	types.reply.DynamicReply.Redis.Parser.destroy__anon_7617
	mov	r12w, 87
	jmp	.LBB12_604
.LBB12_593:
	vmovups	xmm0, xmmword ptr [rbp - 3256]
	vmovaps	xmmword ptr [rbp - 3408], xmm0
	lea	rdi, [rbp - 544]
	lea	rsi, [rbp - 3408]
	vzeroupper
	call	types.reply.DynamicReply.Redis.Parser.destroy__anon_7617
	mov	r12w, 88
	jmp	.LBB12_604
.LBB12_594:
	vmovups	xmm0, xmmword ptr [rbp - 3256]
	vmovaps	xmmword ptr [rbp - 3424], xmm0
	lea	rdi, [rbp - 544]
	lea	rsi, [rbp - 3424]
	jmp	.LBB12_596
.LBB12_595:
	vmovups	xmm0, xmmword ptr [rbp - 3256]
	vmovaps	xmmword ptr [rbp - 3440], xmm0
	lea	rdi, [rbp - 544]
	lea	rsi, [rbp - 3440]
.LBB12_596:
	vzeroupper
	call	types.reply.DynamicReply.Redis.Parser.destroy__anon_7617
	mov	r12w, 89
	jmp	.LBB12_604
.LBB12_597:
	vmovups	xmm0, xmmword ptr [rbp - 3256]
	vmovaps	xmmword ptr [rbp - 3456], xmm0
	lea	rdi, [rbp - 544]
	lea	rsi, [rbp - 3456]
	vzeroupper
	call	types.reply.DynamicReply.Redis.Parser.destroy__anon_7617
	mov	r12w, 90
	jmp	.LBB12_604
.LBB12_598:
	vmovups	xmm0, xmmword ptr [rbp - 3256]
	vmovaps	xmmword ptr [rbp - 3472], xmm0
	lea	rdi, [rbp - 544]
	lea	rsi, [rbp - 3472]
	jmp	.LBB12_600
.LBB12_599:
	vmovups	xmm0, xmmword ptr [rbp - 3256]
	vmovaps	xmmword ptr [rbp - 3488], xmm0
	lea	rdi, [rbp - 544]
	lea	rsi, [rbp - 3488]
.LBB12_600:
	vzeroupper
	call	types.reply.DynamicReply.Redis.Parser.destroy__anon_7617
	mov	r12w, 91
	jmp	.LBB12_604
.LBB12_601:
	vmovups	xmm0, xmmword ptr [rbp - 3256]
	vmovaps	xmmword ptr [rbp - 592], xmm0
	lea	rdi, [rbp - 544]
	lea	rsi, [rbp - 592]
	jmp	.LBB12_603
.LBB12_602:
	vmovups	xmm0, xmmword ptr [rbp - 3256]
	vmovaps	xmmword ptr [rbp - 3536], xmm0
	lea	rdi, [rbp - 544]
	lea	rsi, [rbp - 3536]
.LBB12_603:
	vzeroupper
	call	types.reply.DynamicReply.Redis.Parser.destroy__anon_7617
	mov	r12w, 1
.LBB12_604:
	mov	r13, qword ptr [rbp - 48]
	mov	rsi, qword ptr [rbp - 64]
	test	rsi, rsi
	jne	.LBB12_693
	jmp	.LBB12_697
.LBB12_605:
	mov	rdi, qword ptr [rbp - 3088]
	mov	rcx, qword ptr [rbp - 3080]
	mov	esi, 1
	xor	eax, eax
	lock		cmpxchg	qword ptr [rbp - 3056], rsi
	mov	r12w, 80
	je	.LBB12_746
	mov	rsi, rax
	lea	rdx, [rbp - 3056]
	jmp	.LBB12_751
.LBB12_607:
	mov	r12w, 83
	mov	r13, rcx
	mov	rsi, rax
	mov	qword ptr [rbp - 232], rdx
	test	rsi, rsi
	jne	.LBB12_693
	jmp	.LBB12_697
.LBB12_608:
	mov	r12d, eax
	jmp	.LBB12_706
.LBB12_609:
	mov	r12d, eax
	mov	byte ptr [rbp - 3032], 1
	mov	rdi, qword ptr [rbp - 3088]
	mov	rcx, qword ptr [rbp - 3080]
	mov	edx, 1
	xor	eax, eax
	lock		cmpxchg	qword ptr [rbp - 3056], rdx
	jne	.LBB12_797
.LBB12_610:
	mov	rdi, qword ptr [rbp - 3088]
	mov	rcx, qword ptr [rbp - 3080]
	mov	rax, qword ptr [rbp - 3048]
.LBB12_611:
	mov	rdx, rax
	and	rdx, -2
	lock		cmpxchg	qword ptr [rbp - 3048], rdx
	jne	.LBB12_611
	test	al, 1
	je	.LBB12_798
	test	byte ptr [rbp - 96], 3
	jne	.LBB12_616
.LBB12_614:
	mov	r14, r15
	lea	rbx, [rbp - 112]
.LBB12_615:
	mov	rdi, qword ptr [rbp - 3088]
	mov	rax, qword ptr [rbp - 3080]
	mov	rsi, rbx
	mov	rdx, r14
	call	qword ptr [rax + 112]
	test	byte ptr [rbp - 96], 3
	je	.LBB12_615
.LBB12_616:
	mov	rdi, qword ptr [rbp - 3088]
	mov	rcx, qword ptr [rbp - 3080]
	mov	rax, qword ptr [rbp - 3056]
.LBB12_617:
	mov	rdx, rax
	and	rdx, -2
	lock		cmpxchg	qword ptr [rbp - 3056], rdx
	jne	.LBB12_617
	jmp	.LBB12_660
.LBB12_618:
	mov	rdi, qword ptr [rbp - 3088]
	mov	rcx, qword ptr [rbp - 3080]
	mov	rax, qword ptr [rbp - 3048]
.LBB12_619:
	mov	rdx, rax
	and	rdx, -2
	lock		cmpxchg	qword ptr [rbp - 3048], rdx
	jne	.LBB12_619
	test	al, 1
	je	.LBB12_799
	test	byte ptr [rbp - 96], 3
	jne	.LBB12_624
.LBB12_622:
	mov	r14, r15
	lea	rbx, [rbp - 112]
.LBB12_623:
	mov	rdi, qword ptr [rbp - 3088]
	mov	rax, qword ptr [rbp - 3080]
	mov	rsi, rbx
	mov	rdx, r14
	call	qword ptr [rax + 112]
	test	byte ptr [rbp - 96], 3
	je	.LBB12_623
.LBB12_624:
	mov	rdi, qword ptr [rbp - 3088]
	mov	rcx, qword ptr [rbp - 3080]
	mov	rax, qword ptr [rbp - 3056]
.LBB12_625:
	mov	rdx, rax
	and	rdx, -2
	lock		cmpxchg	qword ptr [rbp - 3056], rdx
	jne	.LBB12_625
	test	al, 1
	je	.LBB12_800
	mov	byte ptr [rbp - 3032], 1
	mov	rsi, qword ptr [rbp - 104]
	test	rsi, rsi
	je	.LBB12_801
.LBB12_628:
	mov	byte ptr [rsi + 16], 2
	mov	rdi, qword ptr [rbp - 3088]
	mov	rax, qword ptr [rbp - 3080]
	xor	edx, edx
	call	qword ptr [rax + 120]
	jmp	.LBB12_802
.LBB12_629:
	mov	r14d, eax
.LBB12_630:
	mov	byte ptr [rbp - 3032], 1
	mov	rdi, qword ptr [rbp - 3088]
	mov	rcx, qword ptr [rbp - 3080]
	mov	edx, 1
	xor	eax, eax
	lock		cmpxchg	qword ptr [rbp - 3056], rdx
	jne	.LBB12_777
.LBB12_631:
	mov	rdi, qword ptr [rbp - 3088]
	mov	rcx, qword ptr [rbp - 3080]
	mov	rax, qword ptr [rbp - 3048]
	mov	r12d, r14d
	lea	r14, [rbp - 3048]
.LBB12_632:
	mov	rdx, rax
	and	rdx, -2
	lock		cmpxchg	qword ptr [rbp - 3048], rdx
	jne	.LBB12_632
	test	al, 1
	je	.LBB12_778
	test	byte ptr [rbp - 192], 3
	jne	.LBB12_637
.LBB12_635:
	lea	rbx, [rbp - 208]
.LBB12_636:
	mov	rdi, qword ptr [rbp - 3088]
	mov	rax, qword ptr [rbp - 3080]
	mov	rsi, rbx
	mov	rdx, r14
	call	qword ptr [rax + 112]
	test	byte ptr [rbp - 192], 3
	je	.LBB12_636
.LBB12_637:
	mov	rdi, qword ptr [rbp - 3088]
	mov	rcx, qword ptr [rbp - 3080]
	mov	rax, qword ptr [rbp - 3056]
.LBB12_638:
	mov	rdx, rax
	and	rdx, -2
	lock		cmpxchg	qword ptr [rbp - 3056], rdx
	jne	.LBB12_638
	test	al, 1
	je	.LBB12_779
	mov	byte ptr [rbp - 3032], 1
	mov	rsi, qword ptr [rbp - 200]
	test	rsi, rsi
	je	.LBB12_780
.LBB12_641:
	mov	byte ptr [rsi + 16], 2
	mov	rdi, qword ptr [rbp - 3088]
	mov	rax, qword ptr [rbp - 3080]
	xor	edx, edx
	call	qword ptr [rax + 120]
	jmp	.LBB12_781
.LBB12_642:
	mov	rsi, rax
	mov	rdx, r15
	call	qword ptr [rcx + 96]
	jmp	.LBB12_545
.LBB12_643:
	mov	rsi, rax
	mov	rdx, r15
	call	qword ptr [rcx + 88]
	test	byte ptr [rbp - 96], 3
	jne	.LBB12_551
	jmp	.LBB12_549
.LBB12_644:
	mov	rsi, rax
	lea	rdx, [rbp - 3056]
	call	qword ptr [rcx + 88]
	mov	byte ptr [rbp - 3032], 1
	mov	rsi, qword ptr [rbp - 104]
	test	rsi, rsi
	jne	.LBB12_555
.LBB12_645:
	mov	qword ptr [rbp - 3040], 0
.LBB12_646:
	mov	rsi, qword ptr [rbp - 64]
	mov	rdi, qword ptr [rbp - 3088]
	mov	rcx, qword ptr [rbp - 3080]
	mov	ebx, 1
	xor	eax, eax
	lock		cmpxchg	qword ptr [rbp - 3056], rbx
	jne	.LBB12_649
.LBB12_647:
	mov	rdi, qword ptr [rbp - 3088]
	mov	rcx, qword ptr [rbp - 3080]
	xor	eax, eax
	lock		cmpxchg	qword ptr [rbp - 3048], rbx
	mov	r12w, 21
	je	.LBB12_692
.LBB12_648:
	mov	rsi, rax
	mov	rdx, r15
	call	qword ptr [rcx + 96]
	jmp	.LBB12_805
.LBB12_649:
	mov	rsi, rax
	lea	rdx, [rbp - 3056]
	call	qword ptr [rcx + 96]
	mov	rsi, qword ptr [rbp - 64]
	jmp	.LBB12_647
.LBB12_650:
	mov	r12d, ecx
.LBB12_651:
	mov	rdi, qword ptr [rbp - 3088]
	mov	rcx, qword ptr [rbp - 3080]
	mov	edx, 1
	xor	eax, eax
	lock		cmpxchg	qword ptr [rbp - 3048], rdx
	jne	.LBB12_808
.LBB12_652:
	mov	rdi, qword ptr [rbp - 3088]
	mov	rcx, qword ptr [rbp - 3080]
	mov	rax, qword ptr [rbp - 3048]
.LBB12_653:
	mov	rdx, rax
	and	rdx, -2
	lock		cmpxchg	qword ptr [rbp - 3048], rdx
	jne	.LBB12_653
	test	al, 1
	je	.LBB12_809
	test	byte ptr [rbp - 96], 3
	jne	.LBB12_658
.LBB12_656:
	lea	rbx, [rbp - 112]
.LBB12_657:
	mov	rdi, qword ptr [rbp - 3088]
	mov	rax, qword ptr [rbp - 3080]
	mov	rsi, rbx
	mov	rdx, r15
	call	qword ptr [rax + 112]
	test	byte ptr [rbp - 96], 3
	je	.LBB12_657
.LBB12_658:
	mov	rdi, qword ptr [rbp - 3088]
	mov	rcx, qword ptr [rbp - 3080]
	mov	rax, qword ptr [rbp - 3056]
.LBB12_659:
	mov	rdx, rax
	and	rdx, -2
	lock		cmpxchg	qword ptr [rbp - 3056], rdx
	jne	.LBB12_659
.LBB12_660:
	test	al, 1
	je	.LBB12_792
	mov	byte ptr [rbp - 3032], 1
	mov	rsi, qword ptr [rbp - 104]
	test	rsi, rsi
	je	.LBB12_793
.LBB12_662:
	mov	byte ptr [rsi + 16], 2
	mov	rdi, qword ptr [rbp - 3088]
	mov	rax, qword ptr [rbp - 3080]
	xor	edx, edx
	call	qword ptr [rax + 120]
	jmp	.LBB12_794
.LBB12_663:
	mov	r14d, eax
.LBB12_664:
	mov	byte ptr [rbp - 3032], 1
	mov	rdi, qword ptr [rbp - 3088]
	mov	rcx, qword ptr [rbp - 3080]
	mov	edx, 1
	xor	eax, eax
	lock		cmpxchg	qword ptr [rbp - 3056], rdx
	jne	.LBB12_788
.LBB12_665:
	mov	rdi, qword ptr [rbp - 3088]
	mov	rcx, qword ptr [rbp - 3080]
	mov	rax, qword ptr [rbp - 3048]
	mov	r12d, r14d
	lea	r14, [rbp - 3048]
.LBB12_666:
	mov	rdx, rax
	and	rdx, -2
	lock		cmpxchg	qword ptr [rbp - 3048], rdx
	jne	.LBB12_666
	test	al, 1
	je	.LBB12_789
	test	byte ptr [rbp - 192], 3
	jne	.LBB12_671
.LBB12_669:
	lea	rbx, [rbp - 208]
.LBB12_670:
	mov	rdi, qword ptr [rbp - 3088]
	mov	rax, qword ptr [rbp - 3080]
	mov	rsi, rbx
	mov	rdx, r14
	call	qword ptr [rax + 112]
	test	byte ptr [rbp - 192], 3
	je	.LBB12_670
.LBB12_671:
	mov	rdi, qword ptr [rbp - 3088]
	mov	rcx, qword ptr [rbp - 3080]
	mov	rax, qword ptr [rbp - 3056]
.LBB12_672:
	mov	rdx, rax
	and	rdx, -2
	lock		cmpxchg	qword ptr [rbp - 3056], rdx
	jne	.LBB12_672
	jmp	.LBB12_683
.LBB12_673:
	mov	r14d, eax
.LBB12_674:
	mov	byte ptr [rbp - 3032], 1
	mov	rdi, qword ptr [rbp - 3088]
	mov	rcx, qword ptr [rbp - 3080]
	mov	edx, 1
	xor	eax, eax
	lock		cmpxchg	qword ptr [rbp - 3056], rdx
	jne	.LBB12_790
.LBB12_675:
	mov	rdi, qword ptr [rbp - 3088]
	mov	rcx, qword ptr [rbp - 3080]
	mov	rax, qword ptr [rbp - 3048]
	mov	r12d, r14d
	lea	r14, [rbp - 3048]
.LBB12_676:
	mov	rdx, rax
	and	rdx, -2
	lock		cmpxchg	qword ptr [rbp - 3048], rdx
	jne	.LBB12_676
	test	al, 1
	je	.LBB12_791
	test	byte ptr [rbp - 192], 3
	jne	.LBB12_681
.LBB12_679:
	lea	rbx, [rbp - 208]
.LBB12_680:
	mov	rdi, qword ptr [rbp - 3088]
	mov	rax, qword ptr [rbp - 3080]
	mov	rsi, rbx
	mov	rdx, r14
	call	qword ptr [rax + 112]
	test	byte ptr [rbp - 192], 3
	je	.LBB12_680
.LBB12_681:
	mov	rdi, qword ptr [rbp - 3088]
	mov	rcx, qword ptr [rbp - 3080]
	mov	rax, qword ptr [rbp - 3056]
.LBB12_682:
	mov	rdx, rax
	and	rdx, -2
	lock		cmpxchg	qword ptr [rbp - 3056], rdx
	jne	.LBB12_682
.LBB12_683:
	test	al, 1
	je	.LBB12_784
	mov	byte ptr [rbp - 3032], 1
	mov	rsi, qword ptr [rbp - 200]
	test	rsi, rsi
	je	.LBB12_785
.LBB12_685:
	mov	byte ptr [rsi + 16], 2
	mov	rdi, qword ptr [rbp - 3088]
	mov	rax, qword ptr [rbp - 3080]
	xor	edx, edx
	call	qword ptr [rax + 120]
	jmp	.LBB12_786
.LBB12_686:
	mov	rsi, rax
	lea	rdx, [rbp - 3056]
	call	qword ptr [rcx + 96]
	jmp	.LBB12_559
.LBB12_687:
	mov	rsi, rax
	mov	rdx, r15
	call	qword ptr [rcx + 88]
	test	byte ptr [rbp - 96], 3
	jne	.LBB12_565
	jmp	.LBB12_563
.LBB12_688:
	mov	rsi, rax
	lea	rdx, [rbp - 3056]
	call	qword ptr [rcx + 88]
	mov	byte ptr [rbp - 3032], 1
	mov	rsi, qword ptr [rbp - 104]
	test	rsi, rsi
	jne	.LBB12_569
.LBB12_689:
	mov	qword ptr [rbp - 3040], 0
.LBB12_690:
	mov	rsi, qword ptr [rbp - 64]
	mov	rdi, qword ptr [rbp - 3088]
	mov	rcx, qword ptr [rbp - 3080]
	mov	ebx, 1
	xor	eax, eax
	lock		cmpxchg	qword ptr [rbp - 3056], rbx
	jne	.LBB12_719
.LBB12_691:
	mov	rdi, qword ptr [rbp - 3088]
	mov	rcx, qword ptr [rbp - 3080]
	xor	eax, eax
	lock		cmpxchg	qword ptr [rbp - 3048], rbx
	jne	.LBB12_720
.LBB12_692:
	mov	r13, qword ptr [rbp - 48]
	test	rsi, rsi
	je	.LBB12_697
.LBB12_693:
	lea	rax, [rsi - 1]
	lzcnt	rax, rax
	xor	ecx, ecx
	mov	dl, 61
	sub	dl, al
	movzx	eax, dl
	cmovb	eax, ecx
	cmp	al, 13
	jae	.LBB12_711
	movzx	r15d, al
	lea	rdi, [rip + heap.SmpAllocator.thread_index@TLSLD]
	call	__tls_get_addr@PLT
	mov	rbx, rax
	mov	r14d, dword ptr [rax + heap.SmpAllocator.thread_index@DTPOFF]
	mov	rax, r14
	shl	rax, 8
	lea	rdi, [rip + heap.SmpAllocator.global]
	lock		bts	dword ptr [rax + rdi + 208], 0
	jb	.LBB12_713
	add	rdi, rax
.LBB12_696:
	mov	rax, qword ptr [rdi + 8*r15 + 104]
	mov	rcx, qword ptr [rbp - 232]
	mov	qword ptr [rcx], rax
	mov	qword ptr [rdi + 8*r15 + 104], rcx
	xor	eax, eax
	xchg	dword ptr [rdi + 208], eax
	cmp	eax, 3
	je	.LBB12_709
.LBB12_697:
	test	r13, r13
	je	.LBB12_702
	lea	rax, [r13 - 1]
	lzcnt	rax, rax
	xor	ecx, ecx
	mov	dl, 61
	sub	dl, al
	movzx	eax, dl
	cmovb	eax, ecx
	cmp	al, 13
	jae	.LBB12_712
	movzx	r15d, al
	lea	rdi, [rip + heap.SmpAllocator.thread_index@TLSLD]
	call	__tls_get_addr@PLT
	mov	rbx, rax
	mov	r14d, dword ptr [rax + heap.SmpAllocator.thread_index@DTPOFF]
	mov	rax, r14
	shl	rax, 8
	lea	rdi, [rip + heap.SmpAllocator.global]
	lock		bts	dword ptr [rax + rdi + 208], 0
	jb	.LBB12_716
	add	rdi, rax
.LBB12_701:
	mov	rax, qword ptr [rdi + 8*r15 + 104]
	mov	rcx, qword ptr [rbp - 80]
	mov	qword ptr [rcx], rax
	mov	qword ptr [rdi + 8*r15 + 104], rcx
	xor	eax, eax
	xchg	dword ptr [rdi + 208], eax
	cmp	eax, 3
	je	.LBB12_710
.LBB12_702:
	cmp	byte ptr [rbp - 660], 1
	jne	.LBB12_706
	mov	edi, dword ptr [rbp - 2744]
	call	close@PLT
	cmp	eax, -1
	jne	.LBB12_705
	call	__error@PLT
.LBB12_705:
	mov	byte ptr [rbp - 660], 0
.LBB12_706:
	lea	rdi, [rbp - 3256]
	call	lib.API.deinit
.LBB12_707:
	lea	rdi, [rbp - 640]
	call	process.EnvMap.deinit
.LBB12_708:
	mov	eax, r12d
	add	rsp, 3944
	pop	rbx
	pop	r12
	pop	r13
	pop	r14
	pop	r15
	pop	rbp
	.cfi_def_cfa rsp, 8
	ret
.LBB12_709:
	.cfi_def_cfa rbp, 16
	add	rdi, 208
	mov	esi, 1
	call	Thread.Futex.wake
	jmp	.LBB12_697
.LBB12_710:
	add	rdi, 208
	mov	esi, 1
	call	Thread.Futex.wake
	jmp	.LBB12_702
.LBB12_711:
	mov	rdi, qword ptr [rbp - 232]
	call	heap.PageAllocator.unmap
	jmp	.LBB12_697
.LBB12_712:
	mov	rdi, qword ptr [rbp - 80]
	mov	rsi, r13
	call	heap.PageAllocator.unmap
	jmp	.LBB12_702
.LBB12_713:
	mov	qword ptr [rbp - 48], r13
	mov	r13d, r12d
	mov	r12, rdi
	call	heap.SmpAllocator.getCpuCount
	mov	rdi, r12
	mov	ecx, eax
.LBB12_714:
	inc	r14d
	mov	eax, r14d
	xor	edx, edx
	div	ecx
	mov	r14d, edx
	mov	rax, r14
	shl	rax, 8
	lock		bts	dword ptr [rax + rdi + 208], 0
	jb	.LBB12_714
	add	rdi, rax
	mov	dword ptr [rbx + heap.SmpAllocator.thread_index@DTPOFF], r14d
	mov	r12d, r13d
	mov	r13, qword ptr [rbp - 48]
	jmp	.LBB12_696
.LBB12_716:
	mov	r13d, r12d
	mov	r12, rdi
	call	heap.SmpAllocator.getCpuCount
	mov	rdi, r12
	mov	ecx, eax
.LBB12_717:
	inc	r14d
	mov	eax, r14d
	xor	edx, edx
	div	ecx
	mov	r14d, edx
	mov	rax, r14
	shl	rax, 8
	lock		bts	dword ptr [rax + rdi + 208], 0
	jb	.LBB12_717
	add	rdi, rax
	mov	dword ptr [rbx + heap.SmpAllocator.thread_index@DTPOFF], r14d
	mov	r12d, r13d
	jmp	.LBB12_701
.LBB12_719:
	mov	r14, rsi
	mov	rsi, rax
	lea	rdx, [rbp - 3056]
	call	qword ptr [rcx + 96]
	mov	rsi, r14
	jmp	.LBB12_691
.LBB12_720:
	mov	rbx, rsi
	mov	rsi, rax
	mov	rdx, r15
.LBB12_721:
	call	qword ptr [rcx + 96]
	mov	rsi, rbx
	mov	r13, qword ptr [rbp - 48]
	test	rsi, rsi
	jne	.LBB12_693
	jmp	.LBB12_697
.LBB12_722:
	mov	r12d, eax
	mov	byte ptr [rbp - 3032], 1
	mov	rdi, qword ptr [rbp - 3088]
	mov	rcx, qword ptr [rbp - 3080]
	xor	eax, eax
	lock		cmpxchg	qword ptr [rbp - 3056], rdx
	jne	.LBB12_817
.LBB12_723:
	mov	rdi, qword ptr [rbp - 3088]
	mov	rcx, qword ptr [rbp - 3080]
	mov	rax, qword ptr [rbp - 3048]
.LBB12_724:
	mov	rdx, rax
	and	rdx, -2
	lock		cmpxchg	qword ptr [rbp - 3048], rdx
	jne	.LBB12_724
	test	al, 1
	je	.LBB12_818
	test	byte ptr [rbp - 192], 3
	jne	.LBB12_729
.LBB12_727:
	lea	rbx, [rbp - 208]
.LBB12_728:
	mov	rdi, qword ptr [rbp - 3088]
	mov	rax, qword ptr [rbp - 3080]
	mov	rsi, rbx
	mov	rdx, r15
	call	qword ptr [rax + 112]
	test	byte ptr [rbp - 192], 3
	je	.LBB12_728
.LBB12_729:
	mov	rdi, qword ptr [rbp - 3088]
	mov	rcx, qword ptr [rbp - 3080]
	mov	rax, qword ptr [rbp - 3056]
.LBB12_730:
	mov	rdx, rax
	and	rdx, -2
	lock		cmpxchg	qword ptr [rbp - 3056], rdx
	jne	.LBB12_730
	jmp	.LBB12_770
.LBB12_731:
	mov	r12d, eax
	mov	rdi, qword ptr [rbp - 3088]
	mov	rcx, qword ptr [rbp - 3080]
	mov	rax, qword ptr [rbp - 3048]
.LBB12_732:
	mov	rdx, rax
	and	rdx, -2
	lock		cmpxchg	qword ptr [rbp - 3048], rdx
	jne	.LBB12_732
	test	al, 1
	je	.LBB12_819
	test	byte ptr [rbp - 192], 3
	jne	.LBB12_737
.LBB12_735:
	lea	rbx, [rbp - 208]
.LBB12_736:
	mov	rdi, qword ptr [rbp - 3088]
	mov	rax, qword ptr [rbp - 3080]
	mov	rsi, rbx
	mov	rdx, r15
	call	qword ptr [rax + 112]
	test	byte ptr [rbp - 192], 3
	je	.LBB12_736
.LBB12_737:
	mov	rdi, qword ptr [rbp - 3088]
	mov	rcx, qword ptr [rbp - 3080]
	mov	rax, qword ptr [rbp - 3056]
.LBB12_738:
	mov	rdx, rax
	and	rdx, -2
	lock		cmpxchg	qword ptr [rbp - 3056], rdx
	jne	.LBB12_738
	jmp	.LBB12_770
.LBB12_739:
	mov	rsi, rax
	mov	rdx, r15
	call	qword ptr [rcx + 96]
	jmp	.LBB12_574
.LBB12_740:
	mov	rsi, rax
	mov	rdx, r15
	call	qword ptr [rcx + 88]
	test	byte ptr [rbp - 192], 3
	jne	.LBB12_580
	jmp	.LBB12_578
.LBB12_741:
	mov	rsi, rax
	lea	rdx, [rbp - 3056]
	call	qword ptr [rcx + 88]
	mov	byte ptr [rbp - 3032], 1
	mov	rsi, qword ptr [rbp - 200]
	test	rsi, rsi
	jne	.LBB12_584
.LBB12_742:
	mov	qword ptr [rbp - 3040], 0
.LBB12_743:
	mov	rdx, qword ptr [rbp - 72]
	mov	r8, qword ptr [rbp - 56]
	mov	rdi, qword ptr [rbp - 3088]
	mov	rcx, qword ptr [rbp - 3080]
	mov	ebx, 1
	xor	eax, eax
	lock		cmpxchg	qword ptr [rbp - 3056], rbx
	jne	.LBB12_749
.LBB12_745:
	mov	rdi, qword ptr [rbp - 3088]
	mov	rcx, qword ptr [rbp - 3080]
	xor	eax, eax
	lock		cmpxchg	qword ptr [rbp - 3048], rbx
	mov	r12w, 21
	jne	.LBB12_750
.LBB12_746:
	test	rdx, rdx
	je	.LBB12_748
	mov	rsi, qword ptr [rbp - 224]
	xor	ecx, ecx
	vzeroupper
	call	heap.SmpAllocator.free
	mov	r8, qword ptr [rbp - 56]
.LBB12_748:
	mov	rsi, qword ptr [rbp - 80]
	mov	rdx, r8
	xor	ecx, ecx
	vzeroupper
	call	heap.SmpAllocator.free
	jmp	.LBB12_702
.LBB12_749:
	mov	rsi, rax
	lea	rdx, [rbp - 3056]
	call	qword ptr [rcx + 96]
	mov	r8, qword ptr [rbp - 56]
	mov	rdx, qword ptr [rbp - 72]
	jmp	.LBB12_745
.LBB12_750:
	mov	rsi, rax
	mov	rdx, r15
.LBB12_751:
	vzeroupper
	call	qword ptr [rcx + 96]
	mov	r8, qword ptr [rbp - 56]
	mov	rdx, qword ptr [rbp - 72]
	jmp	.LBB12_746
.LBB12_752:
	mov	rdi, qword ptr [rbp - 3088]
	mov	rcx, qword ptr [rbp - 3080]
	mov	edx, 1
	xor	eax, eax
	lock		cmpxchg	qword ptr [rbp - 3048], rdx
	jne	.LBB12_820
.LBB12_753:
	mov	rdi, qword ptr [rbp - 3088]
	mov	rcx, qword ptr [rbp - 3080]
	mov	rax, qword ptr [rbp - 3048]
.LBB12_754:
	mov	rdx, rax
	and	rdx, -2
	lock		cmpxchg	qword ptr [rbp - 3048], rdx
	jne	.LBB12_754
	test	al, 1
	je	.LBB12_821
	test	byte ptr [rbp - 192], 3
	jne	.LBB12_759
.LBB12_757:
	lea	rbx, [rbp - 208]
.LBB12_758:
	mov	rdi, qword ptr [rbp - 3088]
	mov	rax, qword ptr [rbp - 3080]
	mov	rsi, rbx
	mov	rdx, r15
	call	qword ptr [rax + 112]
	test	byte ptr [rbp - 192], 3
	je	.LBB12_758
.LBB12_759:
	mov	rdi, qword ptr [rbp - 3088]
	mov	rcx, qword ptr [rbp - 3080]
	mov	rax, qword ptr [rbp - 3056]
.LBB12_760:
	mov	rdx, rax
	and	rdx, -2
	lock		cmpxchg	qword ptr [rbp - 3056], rdx
	jne	.LBB12_760
	jmp	.LBB12_770
.LBB12_761:
	mov	r12d, eax
	mov	rdi, qword ptr [rbp - 3088]
	mov	rcx, qword ptr [rbp - 3080]
	mov	edx, 1
	xor	eax, eax
	lock		cmpxchg	qword ptr [rbp - 3048], rdx
	jne	.LBB12_822
.LBB12_762:
	mov	rdi, qword ptr [rbp - 3088]
	mov	rcx, qword ptr [rbp - 3080]
	mov	rax, qword ptr [rbp - 3048]
.LBB12_763:
	mov	rdx, rax
	and	rdx, -2
	lock		cmpxchg	qword ptr [rbp - 3048], rdx
	jne	.LBB12_763
	test	al, 1
	je	.LBB12_823
	test	byte ptr [rbp - 192], 3
	jne	.LBB12_768
.LBB12_766:
	lea	rbx, [rbp - 208]
.LBB12_767:
	mov	rdi, qword ptr [rbp - 3088]
	mov	rax, qword ptr [rbp - 3080]
	mov	rsi, rbx
	mov	rdx, r15
	call	qword ptr [rax + 112]
	test	byte ptr [rbp - 192], 3
	je	.LBB12_767
.LBB12_768:
	mov	rdi, qword ptr [rbp - 3088]
	mov	rcx, qword ptr [rbp - 3080]
	mov	rax, qword ptr [rbp - 3056]
.LBB12_769:
	mov	rdx, rax
	and	rdx, -2
	lock		cmpxchg	qword ptr [rbp - 3056], rdx
	jne	.LBB12_769
.LBB12_770:
	test	al, 1
	je	.LBB12_810
	mov	byte ptr [rbp - 3032], 1
	mov	rsi, qword ptr [rbp - 200]
	test	rsi, rsi
	je	.LBB12_811
.LBB12_772:
	mov	byte ptr [rsi + 16], 2
	mov	rdi, qword ptr [rbp - 3088]
	mov	rax, qword ptr [rbp - 3080]
	xor	edx, edx
	call	qword ptr [rax + 120]
	jmp	.LBB12_812
.LBB12_773:
	lea	rdi, [rip + __anon_2424]
	mov	esi, 25
	call	debug.defaultPanic
.LBB12_774:
	lea	rdi, [rip + __anon_2523]
	mov	esi, 28
	call	debug.defaultPanic
.LBB12_775:
	lea	rdi, [rip + __anon_2551]
	mov	esi, 32
	call	debug.defaultPanic
.LBB12_776:
	lea	rdi, [rip + __anon_2561]
	mov	esi, 32
	call	debug.defaultPanic
.LBB12_777:
	mov	rsi, rax
	lea	rdx, [rbp - 3056]
	call	qword ptr [rcx + 96]
	jmp	.LBB12_631
.LBB12_778:
	mov	rsi, rax
	mov	rdx, r14
	call	qword ptr [rcx + 88]
	test	byte ptr [rbp - 192], 3
	jne	.LBB12_637
	jmp	.LBB12_635
.LBB12_779:
	mov	rsi, rax
	lea	rdx, [rbp - 3056]
	call	qword ptr [rcx + 88]
	mov	byte ptr [rbp - 3032], 1
	mov	rsi, qword ptr [rbp - 200]
	test	rsi, rsi
	jne	.LBB12_641
.LBB12_780:
	mov	qword ptr [rbp - 3040], 0
.LBB12_781:
	mov	rdx, qword ptr [rbp - 72]
	mov	r8, qword ptr [rbp - 56]
	mov	rdi, qword ptr [rbp - 3088]
	mov	rcx, qword ptr [rbp - 3080]
	mov	ebx, 1
	xor	eax, eax
	lock		cmpxchg	qword ptr [rbp - 3056], rbx
	jne	.LBB12_787
.LBB12_782:
	mov	rdi, qword ptr [rbp - 3088]
	mov	rcx, qword ptr [rbp - 3080]
	xor	eax, eax
	lock		cmpxchg	qword ptr [rbp - 3048], rbx
	je	.LBB12_746
	mov	rsi, rax
	mov	rdx, r14
	jmp	.LBB12_751
.LBB12_784:
	mov	rsi, rax
	lea	rdx, [rbp - 3056]
	call	qword ptr [rcx + 88]
	mov	byte ptr [rbp - 3032], 1
	mov	rsi, qword ptr [rbp - 200]
	test	rsi, rsi
	jne	.LBB12_685
.LBB12_785:
	mov	qword ptr [rbp - 3040], 0
.LBB12_786:
	mov	rdi, qword ptr [rbp - 3088]
	mov	rcx, qword ptr [rbp - 3080]
	mov	ebx, 1
	xor	eax, eax
	lock		cmpxchg	qword ptr [rbp - 3056], rbx
	mov	rdx, qword ptr [rbp - 72]
	mov	r8, qword ptr [rbp - 56]
	je	.LBB12_782
.LBB12_787:
	mov	rsi, rax
	lea	rdx, [rbp - 3056]
	call	qword ptr [rcx + 96]
	mov	r8, qword ptr [rbp - 56]
	mov	rdx, qword ptr [rbp - 72]
	jmp	.LBB12_782
.LBB12_788:
	mov	rsi, rax
	lea	rdx, [rbp - 3056]
	call	qword ptr [rcx + 96]
	jmp	.LBB12_665
.LBB12_789:
	mov	rsi, rax
	mov	rdx, r14
	call	qword ptr [rcx + 88]
	test	byte ptr [rbp - 192], 3
	jne	.LBB12_671
	jmp	.LBB12_669
.LBB12_790:
	mov	rsi, rax
	lea	rdx, [rbp - 3056]
	call	qword ptr [rcx + 96]
	jmp	.LBB12_675
.LBB12_791:
	mov	rsi, rax
	mov	rdx, r14
	call	qword ptr [rcx + 88]
	test	byte ptr [rbp - 192], 3
	jne	.LBB12_681
	jmp	.LBB12_679
.LBB12_792:
	mov	rsi, rax
	lea	rdx, [rbp - 3056]
	call	qword ptr [rcx + 88]
	mov	byte ptr [rbp - 3032], 1
	mov	rsi, qword ptr [rbp - 104]
	test	rsi, rsi
	jne	.LBB12_662
.LBB12_793:
	mov	qword ptr [rbp - 3040], 0
.LBB12_794:
	mov	rdi, qword ptr [rbp - 3088]
	mov	rcx, qword ptr [rbp - 3080]
	mov	ebx, 1
	xor	eax, eax
	lock		cmpxchg	qword ptr [rbp - 3056], rbx
	jne	.LBB12_796
.LBB12_795:
	mov	rdi, qword ptr [rbp - 3088]
	mov	rcx, qword ptr [rbp - 3080]
	xor	eax, eax
	lock		cmpxchg	qword ptr [rbp - 3048], rbx
	je	.LBB12_805
	jmp	.LBB12_648
.LBB12_796:
	mov	rsi, rax
	lea	rdx, [rbp - 3056]
	call	qword ptr [rcx + 96]
	jmp	.LBB12_795
.LBB12_797:
	mov	rsi, rax
	lea	rdx, [rbp - 3056]
	call	qword ptr [rcx + 96]
	jmp	.LBB12_610
.LBB12_798:
	mov	rsi, rax
	mov	rdx, r15
	call	qword ptr [rcx + 88]
	test	byte ptr [rbp - 96], 3
	jne	.LBB12_616
	jmp	.LBB12_614
.LBB12_799:
	mov	rsi, rax
	mov	rdx, r15
	call	qword ptr [rcx + 88]
	test	byte ptr [rbp - 96], 3
	jne	.LBB12_624
	jmp	.LBB12_622
.LBB12_800:
	mov	rsi, rax
	lea	rdx, [rbp - 3056]
	call	qword ptr [rcx + 88]
	mov	byte ptr [rbp - 3032], 1
	mov	rsi, qword ptr [rbp - 104]
	test	rsi, rsi
	jne	.LBB12_628
.LBB12_801:
	mov	qword ptr [rbp - 3040], 0
.LBB12_802:
	mov	rdi, qword ptr [rbp - 3088]
	mov	rcx, qword ptr [rbp - 3080]
	mov	ebx, 1
	xor	eax, eax
	lock		cmpxchg	qword ptr [rbp - 3056], rbx
	jne	.LBB12_806
.LBB12_803:
	mov	rdi, qword ptr [rbp - 3088]
	mov	rcx, qword ptr [rbp - 3080]
	xor	eax, eax
	lock		cmpxchg	qword ptr [rbp - 3048], rbx
	jne	.LBB12_807
.LBB12_804:
	movzx	r12d, word ptr [rbp - 216]
.LBB12_805:
	mov	rsi, qword ptr [rbp - 64]
	mov	r13, qword ptr [rbp - 48]
	test	rsi, rsi
	jne	.LBB12_693
	jmp	.LBB12_697
.LBB12_806:
	mov	rsi, rax
	lea	rdx, [rbp - 3056]
	call	qword ptr [rcx + 96]
	jmp	.LBB12_803
.LBB12_807:
	mov	rsi, rax
	mov	rdx, r15
	call	qword ptr [rcx + 96]
	jmp	.LBB12_804
.LBB12_808:
	mov	rsi, rax
	mov	rdx, r15
	call	qword ptr [rcx + 96]
	jmp	.LBB12_652
.LBB12_809:
	mov	rsi, rax
	mov	rdx, r15
	call	qword ptr [rcx + 88]
	test	byte ptr [rbp - 96], 3
	jne	.LBB12_658
	jmp	.LBB12_656
.LBB12_810:
	mov	rsi, rax
	lea	rdx, [rbp - 3056]
	call	qword ptr [rcx + 88]
	mov	byte ptr [rbp - 3032], 1
	mov	rsi, qword ptr [rbp - 200]
	test	rsi, rsi
	jne	.LBB12_772
.LBB12_811:
	mov	qword ptr [rbp - 3040], 0
.LBB12_812:
	mov	rdi, qword ptr [rbp - 3088]
	mov	rcx, qword ptr [rbp - 3080]
	mov	ebx, 1
	xor	eax, eax
	lock		cmpxchg	qword ptr [rbp - 3056], rbx
	jne	.LBB12_815
.LBB12_813:
	mov	rdi, qword ptr [rbp - 3088]
	mov	rcx, qword ptr [rbp - 3080]
	xor	eax, eax
	lock		cmpxchg	qword ptr [rbp - 3048], rbx
	jne	.LBB12_816
.LBB12_814:
	mov	rdx, qword ptr [rbp - 72]
	mov	r8, qword ptr [rbp - 56]
	jmp	.LBB12_746
.LBB12_815:
	mov	rsi, rax
	lea	rdx, [rbp - 3056]
	call	qword ptr [rcx + 96]
	jmp	.LBB12_813
.LBB12_816:
	mov	rsi, rax
	mov	rdx, r15
	call	qword ptr [rcx + 96]
	jmp	.LBB12_814
.LBB12_817:
	mov	rsi, rax
	lea	rdx, [rbp - 3056]
	call	qword ptr [rcx + 96]
	jmp	.LBB12_723
.LBB12_818:
	mov	rsi, rax
	mov	rdx, r15
	call	qword ptr [rcx + 88]
	test	byte ptr [rbp - 192], 3
	jne	.LBB12_729
	jmp	.LBB12_727
.LBB12_819:
	mov	rsi, rax
	mov	rdx, r15
	call	qword ptr [rcx + 88]
	test	byte ptr [rbp - 192], 3
	jne	.LBB12_737
	jmp	.LBB12_735
.LBB12_820:
	mov	rsi, rax
	mov	rdx, r15
	call	qword ptr [rcx + 96]
	jmp	.LBB12_753
.LBB12_821:
	mov	rsi, rax
	mov	rdx, r15
	call	qword ptr [rcx + 88]
	test	byte ptr [rbp - 192], 3
	jne	.LBB12_759
	jmp	.LBB12_757
.LBB12_822:
	mov	rsi, rax
	mov	rdx, r15
	call	qword ptr [rcx + 96]
	jmp	.LBB12_762
.LBB12_823:
	mov	rsi, rax
	mov	rdx, r15
	call	qword ptr [rcx + 88]
	test	byte ptr [rbp - 192], 3
	jne	.LBB12_768
	jmp	.LBB12_766
.LBB12_824:
	shr	r15d, 16
	mov	r12d, r15d
	jmp	.LBB12_707
.LBB12_825:
	mov	r14d, eax
	jmp	.LBB12_532
.LBB12_826:
	mov	rsi, rax
	mov	rdx, r15
	call	qword ptr [rcx + 96]
	jmp	.LBB12_533
.LBB12_827:
	mov	rsi, rax
	mov	rdx, r15
	call	qword ptr [rcx + 88]
	test	byte ptr [rbp - 192], 3
	jne	.LBB12_539
	jmp	.LBB12_537
.LBB12_828:
	mov	rsi, rax
	lea	rdx, [rbp - 3056]
	call	qword ptr [rcx + 88]
	mov	byte ptr [rbp - 3032], 1
	mov	rsi, qword ptr [rbp - 200]
	test	rsi, rsi
	jne	.LBB12_543
.LBB12_829:
	mov	qword ptr [rbp - 3040], 0
.LBB12_830:
	mov	rdi, qword ptr [rbp - 3088]
	mov	rcx, qword ptr [rbp - 3080]
	mov	ebx, 1
	xor	eax, eax
	lock		cmpxchg	qword ptr [rbp - 3056], rbx
	jne	.LBB12_833
.LBB12_831:
	mov	rdi, qword ptr [rbp - 3088]
	mov	rcx, qword ptr [rbp - 3080]
	xor	eax, eax
	lock		cmpxchg	qword ptr [rbp - 3048], rbx
	jne	.LBB12_834
.LBB12_832:
	mov	rdx, qword ptr [rbp - 72]
	mov	r8, qword ptr [rbp - 56]
	mov	r12d, r14d
	jmp	.LBB12_746
.LBB12_833:
	mov	rsi, rax
	lea	rdx, [rbp - 3056]
	call	qword ptr [rcx + 96]
	jmp	.LBB12_831
.LBB12_834:
	mov	rsi, rax
	mov	rdx, r15
	call	qword ptr [rcx + 96]
	jmp	.LBB12_832
.Lfunc_end12:
	.size	main.main, .Lfunc_end12-main.main
	.cfi_endproc
	.section	.rodata,"a",@progbits
	.p2align	2, 0x0
.LJTI12_0:
	.long	.LBB12_185-.LJTI12_0
	.long	.LBB12_188-.LJTI12_0
	.long	.LBB12_189-.LJTI12_0
	.long	.LBB12_191-.LJTI12_0
	.long	.LBB12_191-.LJTI12_0
	.long	.LBB12_191-.LJTI12_0
	.long	.LBB12_191-.LJTI12_0
	.long	.LBB12_191-.LJTI12_0
	.long	.LBB12_191-.LJTI12_0
	.long	.LBB12_191-.LJTI12_0
	.long	.LBB12_191-.LJTI12_0
	.long	.LBB12_191-.LJTI12_0
	.long	.LBB12_190-.LJTI12_0

	.text
	.p2align	4
	.type	process.EnvMap.get,@function
process.EnvMap.get:
	.cfi_startproc
	push	rbp
	.cfi_def_cfa_offset 16
	.cfi_offset rbp, -16
	mov	rbp, rsp
	.cfi_def_cfa_register rbp
	push	r15
	push	r14
	push	r12
	push	rbx
	.cfi_offset rbx, -48
	.cfi_offset r12, -40
	.cfi_offset r14, -32
	.cfi_offset r15, -24
	mov	rbx, rcx
	mov	r14, rdx
	mov	r15, rdi
	xor	eax, eax
	lea	rcx, [rip + .L__unnamed_9]
	movabs	rdx, 552180162688
	movabs	rdi, 617395240895
	jmp	.LBB13_3
.LBB13_1:
	mov	r8d, 3
	cmp	byte ptr [r14 + rax + 2], -65
	jg	.LBB13_12
	.p2align	4
.LBB13_2:
	add	rax, r8
	cmp	rax, rbx
	jae	.LBB13_12
.LBB13_3:
	movzx	r9d, byte ptr [r14 + rax]
	mov	r8d, 1
	test	r9b, r9b
	jns	.LBB13_2
	movzx	r9d, byte ptr [r9 + rcx]
	cmp	r9, 241
	je	.LBB13_12
	mov	r8d, r9d
	and	r8d, 7
	lea	r10, [rax + r8]
	cmp	r10, rbx
	ja	.LBB13_12
	shr	r9b
	and	r9b, 120
	shrx	r11, rdx, r9
	movzx	r10d, byte ptr [r14 + rax + 1]
	cmp	r10b, r11b
	jb	.LBB13_12
	shrx	r9, rdi, r9
	cmp	r10b, r9b
	ja	.LBB13_12
	movzx	r8d, r8b
	cmp	r8b, 2
	je	.LBB13_2
	cmp	r8d, 4
	jne	.LBB13_1
	cmp	byte ptr [r14 + rax + 2], -65
	jg	.LBB13_12
	mov	r8d, 4
	cmp	byte ptr [r14 + rax + 3], -64
	jl	.LBB13_2
.LBB13_12:
	test	esi, esi
	je	.LBB13_25
	mov	rdi, r14
	mov	rsi, rbx
	call	process.EnvMap.EnvNameHashContext.hash
	test	r15, r15
	je	.LBB13_25
	mov	rcx, rax
	mov	esi, dword ptr [r15 - 8]
	lea	edi, [rsi - 1]
	xor	eax, eax
	sub	esi, 1
	jb	.LBB13_26
	and	edi, ecx
	movzx	r10d, byte ptr [r15 + rdi]
	mov	edx, 0
	test	r10b, r10b
	je	.LBB13_27
	shr	rcx, 57
	and	cl, 127
	movabs	r8, -6148914691236517206
	xor	eax, eax
	mov	r9d, esi
	.p2align	4
.LBB13_17:
	test	r10b, r10b
	sets	dl
	and	r10b, 127
	cmp	cl, r10b
	sete	r10b
	test	dl, r10b
	je	.LBB13_23
	mov	r12, qword ptr [r15 - 16]
	mov	rdx, rdi
	shl	rdx, 4
	mov	r11, qword ptr [r12 + rdx + 8]
	mov	r10, r8
	test	r11, r11
	je	.LBB13_20
	mov	r10, qword ptr [r12 + rdx]
.LBB13_20:
	cmp	rbx, r11
	jne	.LBB13_23
	cmp	r14, r10
	je	.LBB13_30
	vmovq	xmm0, qword ptr [r10 + rbx - 8]
	vmovq	xmm1, qword ptr [r10]
	vpunpcklqdq	xmm0, xmm1, xmm0
	vmovq	xmm1, qword ptr [r14 + rbx - 8]
	vmovq	xmm2, qword ptr [r14]
	vpunpcklqdq	xmm1, xmm2, xmm1
	vpxor	xmm0, xmm0, xmm1
	vptest	xmm0, xmm0
	je	.LBB13_30
.LBB13_23:
	inc	edi
	and	edi, esi
	movzx	r10d, byte ptr [r15 + rdi]
	cmp	r9d, 1
	setb	r11b
	test	r10b, r10b
	je	.LBB13_26
	dec	r9d
	mov	edx, 0
	test	r11b, r11b
	je	.LBB13_17
	jmp	.LBB13_27
.LBB13_25:
	xor	eax, eax
.LBB13_26:
	xor	edx, edx
.LBB13_27:
	pop	rbx
	pop	r12
	pop	r14
	pop	r15
	pop	rbp
	.cfi_def_cfa rsp, 8
	ret
.LBB13_30:
	.cfi_def_cfa rbp, 16
	mov	rcx, qword ptr [r15 - 24]
	mov	rax, qword ptr [rcx + rdx]
	mov	rdx, qword ptr [rcx + rdx + 8]
	jmp	.LBB13_27
.Lfunc_end13:
	.size	process.EnvMap.get, .Lfunc_end13-process.EnvMap.get
	.cfi_endproc

	.section	.text.unlikely.,"ax",@progbits
	.p2align	4
	.type	debug.defaultPanic,@function
debug.defaultPanic:
	.cfi_startproc
	push	rbp
	.cfi_def_cfa_offset 16
	.cfi_offset rbp, -16
	mov	rbp, rsp
	.cfi_def_cfa_register rbp
	push	r15
	push	r14
	push	r13
	push	r12
	push	rbx
	sub	rsp, 152
	.cfi_offset rbx, -56
	.cfi_offset r12, -48
	.cfi_offset r13, -40
	.cfi_offset r14, -32
	.cfi_offset r15, -24
	mov	qword ptr [rbp - 72], rsi
	mov	qword ptr [rbp - 152], rdi
	lea	rdi, [rip + debug.panic_stage@TLSLD]
	call	__tls_get_addr@PLT
	mov	rcx, qword ptr [rax + debug.panic_stage@DTPOFF]
	test	rcx, rcx
	jne	.LBB14_42
	movabs	rsi, -6148914691236517206
	mov	qword ptr [rax + debug.panic_stage@DTPOFF], 1
	lock		inc	byte ptr [rip + debug.panicking]
	xor	r15d, r15d
	lea	rdi, [rbp - 168]
	xor	edx, edx
	call	debug.lockStderrWriter
	mov	r14, qword ptr [rbp - 168]
	movzx	eax, byte ptr [rbp - 160]
	mov	byte ptr [rbp - 41], al
	call	pthread_getthreadid_np@PLT
	mov	r13d, eax
	lea	r12, [rip + __anon_8064]
	.p2align	4
.LBB14_2:
	lea	rsi, [r12 + r15]
	mov	rbx, r15
	xor	rbx, 7
	mov	rdi, qword ptr [r14 + 24]
	lea	rax, [rdi + rbx]
	cmp	rax, qword ptr [r14 + 16]
	ja	.LBB14_4
	add	rdi, qword ptr [r14 + 8]
	mov	rdx, rbx
	call	memcpy@PLT
	add	qword ptr [r14 + 24], rbx
	add	r15, rbx
	cmp	r15, 7
	jb	.LBB14_2
	jmp	.LBB14_6
.LBB14_4:
	mov	rax, qword ptr [r14]
	mov	rax, qword ptr [rax]
	mov	qword ptr [rbp - 64], rsi
	mov	qword ptr [rbp - 56], rbx
	mov	ecx, 1
	mov	r8d, 1
	lea	rdi, [rbp - 144]
	mov	rsi, r14
	lea	rdx, [rbp - 64]
	call	rax
	cmp	word ptr [rbp - 136], 0
	jne	.LBB14_30
	mov	rbx, qword ptr [rbp - 144]
	add	r15, rbx
	cmp	r15, 7
	jb	.LBB14_2
.LBB14_6:
	mov	edx, r13d
	mov	eax, 65
	cmp	r13d, 100
	jb	.LBB14_11
	lea	rsi, [rip + __anon_14355]
	.p2align	4
.LBB14_8:
	imul	rcx, rdx, 1374389535
	shr	rcx, 37
	imul	edi, ecx, 100
	mov	r8d, edx
	sub	r8d, edi
	movzx	edi, word ptr [rsi + 2*r8]
	mov	word ptr [rbp + rax - 146], di
	add	rax, -2
	cmp	rdx, 9999
	mov	rdx, rcx
	ja	.LBB14_8
	cmp	ecx, 9
	ja	.LBB14_12
.LBB14_10:
	or	cl, 48
	mov	byte ptr [rbp + rax - 145], cl
	dec	rax
	mov	r15, rax
	sub	r15, 65
	je	.LBB14_13
	jmp	.LBB14_36
.LBB14_11:
	mov	rcx, rdx
	cmp	ecx, 9
	jbe	.LBB14_10
.LBB14_12:
	lea	rdx, [rip + __anon_14355]
	movzx	ecx, word ptr [rdx + 2*rcx]
	mov	word ptr [rbp + rax - 146], cx
	add	rax, -2
	mov	r15, rax
	sub	r15, 65
	jne	.LBB14_36
.LBB14_13:
	xor	r15d, r15d
	lea	r12, [rip + __anon_8120]
	lea	r13, [rbp - 64]
	.p2align	4
.LBB14_14:
	lea	rsi, [r12 + r15]
	mov	ebx, 8
	sub	rbx, r15
	mov	rdi, qword ptr [r14 + 24]
	lea	rax, [rdi + rbx]
	cmp	rax, qword ptr [r14 + 16]
	ja	.LBB14_16
	add	rdi, qword ptr [r14 + 8]
	mov	rdx, rbx
	call	memcpy@PLT
	add	qword ptr [r14 + 24], rbx
	add	r15, rbx
	cmp	r15, 8
	jb	.LBB14_14
	jmp	.LBB14_18
.LBB14_16:
	mov	rax, qword ptr [r14]
	mov	rax, qword ptr [rax]
	mov	qword ptr [rbp - 64], rsi
	mov	qword ptr [rbp - 56], rbx
	mov	ecx, 1
	mov	r8d, 1
	lea	rdi, [rbp - 144]
	mov	rsi, r14
	mov	rdx, r13
	call	rax
	cmp	word ptr [rbp - 136], 0
	jne	.LBB14_30
	mov	rbx, qword ptr [rbp - 144]
	add	r15, rbx
	cmp	r15, 8
	jb	.LBB14_14
.LBB14_18:
	mov	r15, qword ptr [rbp - 72]
	test	r15, r15
	je	.LBB14_24
	xor	r12d, r12d
	lea	rbx, [rbp - 144]
	lea	r13, [rbp - 64]
	.p2align	4
.LBB14_20:
	mov	rax, qword ptr [rbp - 152]
	lea	rsi, [rax + r12]
	sub	r15, r12
	mov	rdi, qword ptr [r14 + 24]
	lea	rax, [rdi + r15]
	cmp	rax, qword ptr [r14 + 16]
	ja	.LBB14_22
	add	rdi, qword ptr [r14 + 8]
	mov	rdx, r15
	call	memcpy@PLT
	add	qword ptr [r14 + 24], r15
	add	r12, r15
	mov	r15, qword ptr [rbp - 72]
	cmp	r12, r15
	jb	.LBB14_20
	jmp	.LBB14_24
.LBB14_22:
	mov	rax, qword ptr [r14]
	mov	rax, qword ptr [rax]
	mov	qword ptr [rbp - 64], rsi
	mov	qword ptr [rbp - 56], r15
	mov	ecx, 1
	mov	r8d, 1
	mov	rdi, rbx
	mov	rsi, r14
	mov	rdx, r13
	call	rax
	cmp	word ptr [rbp - 136], 0
	jne	.LBB14_30
	mov	r15, qword ptr [rbp - 144]
	add	r12, r15
	mov	r15, qword ptr [rbp - 72]
	cmp	r12, r15
	jb	.LBB14_20
.LBB14_24:
	lea	r12, [rip + __anon_8151]
	lea	rbx, [rbp - 144]
	lea	r15, [rbp - 64]
.LBB14_25:
	mov	rax, qword ptr [r14 + 24]
	cmp	rax, qword ptr [r14 + 16]
	jb	.LBB14_28
	mov	rax, qword ptr [r14]
	mov	rax, qword ptr [rax]
	mov	qword ptr [rbp - 64], r12
	mov	qword ptr [rbp - 56], 1
	mov	ecx, 1
	mov	r8d, 1
	mov	rdi, rbx
	mov	rsi, r14
	mov	rdx, r15
	call	rax
	cmp	word ptr [rbp - 136], 0
	jne	.LBB14_30
	cmp	qword ptr [rbp - 144], 0
	je	.LBB14_25
	jmp	.LBB14_29
.LBB14_28:
	mov	rcx, qword ptr [r14 + 8]
	mov	byte ptr [rcx + rax], 10
	inc	qword ptr [r14 + 24]
.LBB14_29:
	movzx	esi, byte ptr [rbp - 41]
	mov	rdi, r14
	call	debug.writeCurrentStackTrace
.LBB14_30:
	mov	rax, qword ptr [rip + Progress.stderr_file_writer+8]
	lea	rdi, [rip + Progress.stderr_file_writer+8]
	call	qword ptr [rax + 16]
	movabs	rax, -6148914691236517206
	mov	qword ptr [rip + Progress.stderr_file_writer+16], rax
	vxorps	xmm0, xmm0, xmm0
	vmovups	xmmword ptr [rip + Progress.stderr_file_writer+24], xmm0
	dec	qword ptr [rip + Progress.stderr_mutex]
	jne	.LBB14_32
	mov	dword ptr [rip + Progress.stderr_mutex+12], -1
	xor	eax, eax
	xchg	dword ptr [rip + Progress.stderr_mutex+8], eax
	cmp	eax, 3
	je	.LBB14_41
.LBB14_32:
	lock		dec	byte ptr [rip + debug.panicking]
	je	.LBB14_44
.LBB14_33:
	mov	dword ptr [rbp - 144], 0
	lea	rbx, [rbp - 144]
	.p2align	4
.LBB14_34:
	mov	rdi, rbx
	mov	esi, 15
	xor	edx, edx
	xor	ecx, ecx
	xor	r8d, r8d
	call	_umtx_op@PLT
	cmp	eax, -1
	jne	.LBB14_34
	call	__error@PLT
	jmp	.LBB14_34
.LBB14_36:
	neg	r15
	lea	rbx, [rax + rbp]
	add	rbx, -144
	xor	r12d, r12d
	.p2align	4
.LBB14_37:
	lea	rsi, [rbx + r12]
	mov	r13, r15
	sub	r13, r12
	mov	rdi, qword ptr [r14 + 24]
	lea	rax, [rdi + r13]
	cmp	rax, qword ptr [r14 + 16]
	ja	.LBB14_39
	add	rdi, qword ptr [r14 + 8]
	mov	rdx, r13
	call	memcpy@PLT
	add	qword ptr [r14 + 24], r13
	add	r12, r13
	cmp	r12, r15
	jb	.LBB14_37
	jmp	.LBB14_13
.LBB14_39:
	mov	rax, qword ptr [r14]
	mov	rax, qword ptr [rax]
	mov	qword ptr [rbp - 184], rsi
	mov	qword ptr [rbp - 176], r13
	mov	ecx, 1
	mov	r8d, 1
	lea	rdi, [rbp - 64]
	mov	rsi, r14
	lea	rdx, [rbp - 184]
	call	rax
	cmp	word ptr [rbp - 56], 0
	jne	.LBB14_30
	mov	r13, qword ptr [rbp - 64]
	add	r12, r13
	cmp	r12, r15
	jb	.LBB14_37
	jmp	.LBB14_13
.LBB14_41:
	lea	rdi, [rip + Progress.stderr_mutex+8]
	mov	esi, 1
	call	Thread.Futex.wake
	lock		dec	byte ptr [rip + debug.panicking]
	jne	.LBB14_33
	jmp	.LBB14_44
.LBB14_42:
	cmp	rcx, 1
	jne	.LBB14_44
	mov	qword ptr [rax + debug.panic_stage@DTPOFF], 2
	call	fs.File.writeAll
.LBB14_44:
	call	posix.abort
.Lfunc_end14:
	.size	debug.defaultPanic, .Lfunc_end14-debug.defaultPanic
	.cfi_endproc

	.text
	.p2align	4
	.type	process.EnvMap.deinit,@function
process.EnvMap.deinit:
	.cfi_startproc
	push	rbp
	.cfi_def_cfa_offset 16
	.cfi_offset rbp, -16
	mov	rbp, rsp
	.cfi_def_cfa_register rbp
	push	r15
	push	r14
	push	r12
	push	rbx
	.cfi_offset rbx, -48
	.cfi_offset r12, -40
	.cfi_offset r14, -32
	.cfi_offset r15, -24
	mov	rbx, rdi
	xor	r14d, r14d
.LBB15_1:
	mov	rsi, qword ptr [rbx]
	test	rsi, rsi
	je	.LBB15_2
	mov	eax, dword ptr [rsi - 8]
	cmp	dword ptr [rbx + 8], 0
	je	.LBB15_11
	mov	r14d, r14d
	cmp	r14d, eax
	jne	.LBB15_7
	jmp	.LBB15_11
	.p2align	4
.LBB15_2:
	cmp	dword ptr [rbx + 8], 0
	je	.LBB15_12
	mov	r14d, r14d
	test	r14, r14
	je	.LBB15_12
	xor	eax, eax
.LBB15_7:
	mov	r15, r14
	shl	r15, 4
	or	r15, 8
	inc	r14
	neg	rax
	.p2align	4
.LBB15_8:
	cmp	byte ptr [rsi + r14 - 1], 0
	js	.LBB15_13
	add	r15, 16
	lea	rcx, [rax + r14]
	inc	rcx
	inc	r14
	cmp	rcx, 1
	jne	.LBB15_8
	jmp	.LBB15_10
	.p2align	4
.LBB15_13:
	mov	r12, qword ptr [rsi - 24]
	mov	rax, qword ptr [rsi - 16]
	mov	rdx, qword ptr [rax + r15]
	test	rdx, rdx
	je	.LBB15_15
	mov	rsi, qword ptr [rax + r15 - 8]
	mov	rdi, qword ptr [rbx + 16]
	mov	rax, qword ptr [rbx + 24]
	mov	r8, qword ptr [rbp + 8]
	xor	ecx, ecx
	call	qword ptr [rax + 24]
.LBB15_15:
	mov	rdx, qword ptr [r12 + r15]
	test	rdx, rdx
	je	.LBB15_1
	mov	rsi, qword ptr [r12 + r15 - 8]
	mov	rdi, qword ptr [rbx + 16]
	mov	rax, qword ptr [rbx + 24]
	mov	r8, qword ptr [rbp + 8]
	xor	ecx, ecx
	call	qword ptr [rax + 24]
	jmp	.LBB15_1
.LBB15_10:
	mov	eax, dword ptr [rsi - 8]
.LBB15_11:
	mov	rdi, qword ptr [rbx + 16]
	mov	r9, qword ptr [rbx + 24]
	mov	rcx, rax
	shl	rcx, 5
	add	rax, rcx
	add	rax, 31
	movabs	rdx, 274877906936
	and	rdx, rax
	add	rsi, -24
	mov	r8, qword ptr [rbp + 8]
	mov	ecx, 3
	call	qword ptr [r9 + 24]
	mov	qword ptr [rbx], 0
	mov	dword ptr [rbx + 12], 0
.LBB15_12:
	pop	rbx
	pop	r12
	pop	r14
	pop	r15
	pop	rbp
	.cfi_def_cfa rsp, 8
	ret
.Lfunc_end15:
	.size	process.EnvMap.deinit, .Lfunc_end15-process.EnvMap.deinit
	.cfi_endproc

	.p2align	4
	.type	lib.API.deinit,@function
lib.API.deinit:
	.cfi_startproc
	push	rbp
	.cfi_def_cfa_offset 16
	.cfi_offset rbp, -16
	mov	rbp, rsp
	.cfi_def_cfa_register rbp
	push	r14
	push	rbx
	.cfi_offset rbx, -32
	.cfi_offset r14, -24
	mov	rbx, rdi
	cmp	byte ptr [rdi + 2596], 1
	jne	.LBB16_4
	mov	edi, dword ptr [rbx + 512]
	call	close@PLT
	cmp	eax, -1
	jne	.LBB16_3
	call	__error@PLT
.LBB16_3:
	mov	byte ptr [rbx + 2596], 0
.LBB16_4:
	lea	r14, [rbx + 152]
	lock		bts	dword ptr [rbx + 152], 0
	jb	.LBB16_5
.LBB16_6:
	mov	byte ptr [rbx + 166], 1
	xor	eax, eax
	xchg	dword ptr [rbx + 152], eax
	cmp	eax, 3
	je	.LBB16_7
.LBB16_8:
	mov	eax, dword ptr [rbx + 156]
	.p2align	4
.LBB16_9:
	movzx	esi, ax
	mov	ecx, eax
	shr	ecx, 16
	sub	esi, ecx
	je	.LBB16_12
	mov	ecx, esi
	shl	ecx, 16
	add	ecx, eax
	lock		cmpxchg	dword ptr [rbx + 156], ecx
	jne	.LBB16_9
	lea	rdi, [rbx + 160]
	lock		inc	dword ptr [rbx + 160]
	call	Thread.Futex.wake
.LBB16_12:
	mov	eax, 1
	lock		xadd	qword ptr [rbx + 48], rax
	test	rax, rax
	je	.LBB16_15
	mov	eax, dword ptr [rbx + 56]
	cmp	eax, 2
	jne	.LBB16_14
.LBB16_15:
	cmp	byte ptr [rbx + 167], 1
	jne	.LBB16_19
.LBB16_16:
	lea	rsi, [rbx + 88]
	mov	edi, 23
	xor	edx, edx
	call	sigaction@PLT
	cmp	eax, -1
	jne	.LBB16_18
	call	__error@PLT
.LBB16_18:
	add	rbx, 120
	mov	edi, 13
	mov	rsi, rbx
	xor	edx, edx
	call	sigaction@PLT
	cmp	eax, -1
	je	.LBB16_20
.LBB16_19:
	pop	rbx
	pop	r14
	pop	rbp
	.cfi_def_cfa rsp, 8
	ret
.LBB16_20:
	.cfi_def_cfa rbp, 16
	pop	rbx
	pop	r14
	pop	rbp
	.cfi_def_cfa rsp, 8
	jmp	__error@PLT
.LBB16_5:
	.cfi_def_cfa rbp, 16
	mov	rdi, r14
	call	Thread.Mutex.FutexImpl.lockSlow
	jmp	.LBB16_6
.LBB16_7:
	mov	rdi, r14
	mov	esi, 1
	call	Thread.Futex.wake
	jmp	.LBB16_8
.LBB16_14:
	lea	rdi, [rbx + 56]
	call	Thread.ResetEvent.timedWaitInner
	cmp	byte ptr [rbx + 167], 1
	je	.LBB16_16
	jmp	.LBB16_19
.Lfunc_end16:
	.size	lib.API.deinit, .Lfunc_end16-lib.API.deinit
	.cfi_endproc

	.globl	main
	.p2align	4
	.type	main,@function
main:
.Lmain$local:
	.type	.Lmain$local,@function
	.cfi_startproc
	mov	rax, -1
	.p2align	4
.LBB17_1:
	cmp	qword ptr [rdx + 8*rax + 8], 0
	lea	rax, [rax + 1]
	jne	.LBB17_1
	push	rbp
	.cfi_def_cfa_offset 16
	.cfi_offset rbp, -16
	mov	rbp, rsp
	.cfi_def_cfa_register rbp
	mov	ecx, edi
	mov	qword ptr [rip + os.argv], rsi
	mov	qword ptr [rip + os.argv+8], rcx
	mov	qword ptr [rip + os.environ], rdx
	mov	qword ptr [rip + os.environ+8], rax
	call	main.main
	movzx	eax, ax
	shl	eax, 4
	lea	rcx, [rip + .L__unnamed_18]
	mov	rdi, qword ptr [rax + rcx]
	mov	rsi, qword ptr [rax + rcx + 8]
	call	"log.scoped(.default).err__anon_6072"
	mov	eax, 1
	pop	rbp
	.cfi_def_cfa rsp, 8
	ret
.Lfunc_end17:
	.size	main, .Lfunc_end17-main
	.size	.Lmain$local, .Lfunc_end17-main
	.cfi_endproc

	.section	.text.unlikely.,"ax",@progbits
	.p2align	4
	.type	"log.scoped(.default).err__anon_6072",@function
"log.scoped(.default).err__anon_6072":
	.cfi_startproc
	push	rbp
	.cfi_def_cfa_offset 16
	.cfi_offset rbp, -16
	mov	rbp, rsp
	.cfi_def_cfa_register rbp
	push	r15
	push	r14
	push	r13
	push	r12
	push	rbx
	sub	rsp, 136
	.cfi_offset rbx, -56
	.cfi_offset r12, -48
	.cfi_offset r13, -40
	.cfi_offset r14, -32
	.cfi_offset r15, -24
	mov	r13, rsi
	mov	qword ptr [rbp - 88], rdi
	lea	rdi, [rbp - 104]
	lea	rsi, [rbp - 168]
	mov	edx, 64
	call	debug.lockStderrWriter
	mov	rbx, qword ptr [rbp - 104]
	movzx	eax, byte ptr [rbp - 96]
	mov	byte ptr [rbp - 41], al
	test	al, al
	je	.LBB18_13
	xor	r14d, r14d
	lea	r15, [rip + __anon_11279]
	.p2align	4
.LBB18_2:
	lea	rsi, [r15 + r14]
	mov	r12d, 5
	sub	r12, r14
	mov	rdi, qword ptr [rbx + 24]
	lea	rax, [rdi + r12]
	cmp	rax, qword ptr [rbx + 16]
	ja	.LBB18_4
	add	rdi, qword ptr [rbx + 8]
	mov	rdx, r12
	call	memcpy@PLT
	add	qword ptr [rbx + 24], r12
	add	r14, r12
	cmp	r14, 5
	jb	.LBB18_2
	jmp	.LBB18_7
.LBB18_4:
	mov	rax, qword ptr [rbx]
	mov	rax, qword ptr [rax]
	mov	qword ptr [rbp - 64], rsi
	mov	qword ptr [rbp - 56], r12
	mov	ecx, 1
	mov	r8d, 1
	lea	rdi, [rbp - 80]
	mov	rsi, rbx
	lea	rdx, [rbp - 64]
	call	rax
	cmp	word ptr [rbp - 72], 0
	jne	.LBB18_7
	mov	r12, qword ptr [rbp - 80]
	add	r14, r12
	cmp	r14, 5
	jb	.LBB18_2
.LBB18_7:
	xor	r14d, r14d
	lea	r15, [rip + __anon_11309]
	.p2align	4
.LBB18_8:
	lea	rsi, [r15 + r14]
	mov	r12d, 4
	sub	r12, r14
	mov	rdi, qword ptr [rbx + 24]
	lea	rax, [rdi + r12]
	cmp	rax, qword ptr [rbx + 16]
	ja	.LBB18_10
	add	rdi, qword ptr [rbx + 8]
	mov	rdx, r12
	call	memcpy@PLT
	add	qword ptr [rbx + 24], r12
	add	r14, r12
	cmp	r14, 4
	jb	.LBB18_8
	jmp	.LBB18_13
.LBB18_10:
	mov	rax, qword ptr [rbx]
	mov	rax, qword ptr [rax]
	mov	qword ptr [rbp - 64], rsi
	mov	qword ptr [rbp - 56], r12
	mov	ecx, 1
	mov	r8d, 1
	lea	rdi, [rbp - 80]
	mov	rsi, rbx
	lea	rdx, [rbp - 64]
	call	rax
	cmp	word ptr [rbp - 72], 0
	jne	.LBB18_13
	mov	r12, qword ptr [rbp - 80]
	add	r14, r12
	cmp	r14, 4
	jb	.LBB18_8
.LBB18_13:
	xor	r14d, r14d
	lea	r15, [rip + __anon_15748]
	.p2align	4
.LBB18_14:
	lea	rsi, [r15 + r14]
	mov	r12d, 5
	sub	r12, r14
	mov	rdi, qword ptr [rbx + 24]
	lea	rax, [rdi + r12]
	cmp	rax, qword ptr [rbx + 16]
	ja	.LBB18_16
	add	rdi, qword ptr [rbx + 8]
	mov	rdx, r12
	call	memcpy@PLT
	add	qword ptr [rbx + 24], r12
	add	r14, r12
	cmp	r14, 5
	jb	.LBB18_14
	jmp	.LBB18_19
.LBB18_16:
	mov	rax, qword ptr [rbx]
	mov	rax, qword ptr [rax]
	mov	qword ptr [rbp - 64], rsi
	mov	qword ptr [rbp - 56], r12
	mov	ecx, 1
	mov	r8d, 1
	lea	rdi, [rbp - 80]
	mov	rsi, rbx
	lea	rdx, [rbp - 64]
	call	rax
	cmp	word ptr [rbp - 72], 0
	jne	.LBB18_48
	mov	r12, qword ptr [rbp - 80]
	add	r14, r12
	cmp	r14, 5
	jb	.LBB18_14
.LBB18_19:
	cmp	byte ptr [rbp - 41], 0
	je	.LBB18_38
	xor	r14d, r14d
	lea	r15, [rip + __anon_11313]
	.p2align	4
.LBB18_21:
	lea	rsi, [r15 + r14]
	mov	r12d, 4
	sub	r12, r14
	mov	rdi, qword ptr [rbx + 24]
	lea	rax, [rdi + r12]
	cmp	rax, qword ptr [rbx + 16]
	ja	.LBB18_23
	add	rdi, qword ptr [rbx + 8]
	mov	rdx, r12
	call	memcpy@PLT
	add	qword ptr [rbx + 24], r12
	add	r14, r12
	cmp	r14, 4
	jb	.LBB18_21
	jmp	.LBB18_26
.LBB18_23:
	mov	rax, qword ptr [rbx]
	mov	rax, qword ptr [rax]
	mov	qword ptr [rbp - 64], rsi
	mov	qword ptr [rbp - 56], r12
	mov	ecx, 1
	mov	r8d, 1
	lea	rdi, [rbp - 80]
	mov	rsi, rbx
	lea	rdx, [rbp - 64]
	call	rax
	cmp	word ptr [rbp - 72], 0
	jne	.LBB18_26
	mov	r12, qword ptr [rbp - 80]
	add	r14, r12
	cmp	r14, 4
	jb	.LBB18_21
.LBB18_26:
	xor	r14d, r14d
	lea	r15, [rip + __anon_11311]
	.p2align	4
.LBB18_27:
	lea	rsi, [r15 + r14]
	mov	r12d, 4
	sub	r12, r14
	mov	rdi, qword ptr [rbx + 24]
	lea	rax, [rdi + r12]
	cmp	rax, qword ptr [rbx + 16]
	ja	.LBB18_29
	add	rdi, qword ptr [rbx + 8]
	mov	rdx, r12
	call	memcpy@PLT
	add	qword ptr [rbx + 24], r12
	add	r14, r12
	cmp	r14, 4
	jb	.LBB18_27
	jmp	.LBB18_32
.LBB18_29:
	mov	rax, qword ptr [rbx]
	mov	rax, qword ptr [rax]
	mov	qword ptr [rbp - 64], rsi
	mov	qword ptr [rbp - 56], r12
	mov	ecx, 1
	mov	r8d, 1
	lea	rdi, [rbp - 80]
	mov	rsi, rbx
	lea	rdx, [rbp - 64]
	call	rax
	cmp	word ptr [rbp - 72], 0
	jne	.LBB18_32
	mov	r12, qword ptr [rbp - 80]
	add	r14, r12
	cmp	r14, 4
	jb	.LBB18_27
.LBB18_32:
	xor	r14d, r14d
	lea	r15, [rip + __anon_11309]
	.p2align	4
.LBB18_33:
	lea	rsi, [r15 + r14]
	mov	r12d, 4
	sub	r12, r14
	mov	rdi, qword ptr [rbx + 24]
	lea	rax, [rdi + r12]
	cmp	rax, qword ptr [rbx + 16]
	ja	.LBB18_35
	add	rdi, qword ptr [rbx + 8]
	mov	rdx, r12
	call	memcpy@PLT
	add	qword ptr [rbx + 24], r12
	add	r14, r12
	cmp	r14, 4
	jb	.LBB18_33
	jmp	.LBB18_38
.LBB18_35:
	mov	rax, qword ptr [rbx]
	mov	rax, qword ptr [rax]
	mov	qword ptr [rbp - 64], rsi
	mov	qword ptr [rbp - 56], r12
	mov	ecx, 1
	mov	r8d, 1
	lea	rdi, [rbp - 80]
	mov	rsi, rbx
	lea	rdx, [rbp - 64]
	call	rax
	cmp	word ptr [rbp - 72], 0
	jne	.LBB18_38
	mov	r12, qword ptr [rbp - 80]
	add	r14, r12
	cmp	r14, 4
	jb	.LBB18_33
.LBB18_38:
	xor	r14d, r14d
	lea	r15, [rip + __anon_13797]
	.p2align	4
.LBB18_39:
	lea	rsi, [r15 + r14]
	mov	r12d, 2
	sub	r12, r14
	mov	rdi, qword ptr [rbx + 24]
	lea	rax, [rdi + r12]
	cmp	rax, qword ptr [rbx + 16]
	ja	.LBB18_41
	add	rdi, qword ptr [rbx + 8]
	mov	rdx, r12
	call	memcpy@PLT
	add	qword ptr [rbx + 24], r12
	add	r14, r12
	cmp	r14, 2
	jb	.LBB18_39
	jmp	.LBB18_44
.LBB18_41:
	mov	rax, qword ptr [rbx]
	mov	rax, qword ptr [rax]
	mov	qword ptr [rbp - 64], rsi
	mov	qword ptr [rbp - 56], r12
	mov	ecx, 1
	mov	r8d, 1
	lea	rdi, [rbp - 80]
	mov	rsi, rbx
	lea	rdx, [rbp - 64]
	call	rax
	cmp	word ptr [rbp - 72], 0
	jne	.LBB18_48
	mov	r12, qword ptr [rbp - 80]
	add	r14, r12
	cmp	r14, 2
	jb	.LBB18_39
.LBB18_44:
	cmp	byte ptr [rbp - 41], 0
	je	.LBB18_55
	xor	r14d, r14d
	lea	r15, [rip + __anon_11313]
	.p2align	4
.LBB18_46:
	lea	rsi, [r15 + r14]
	mov	r12d, 4
	sub	r12, r14
	mov	rdi, qword ptr [rbx + 24]
	lea	rax, [rdi + r12]
	cmp	rax, qword ptr [rbx + 16]
	ja	.LBB18_52
	add	rdi, qword ptr [rbx + 8]
	mov	rdx, r12
	call	memcpy@PLT
	add	qword ptr [rbx + 24], r12
	add	r14, r12
	cmp	r14, 4
	jb	.LBB18_46
	jmp	.LBB18_55
.LBB18_52:
	mov	rax, qword ptr [rbx]
	mov	rax, qword ptr [rax]
	mov	qword ptr [rbp - 64], rsi
	mov	qword ptr [rbp - 56], r12
	mov	ecx, 1
	mov	r8d, 1
	lea	rdi, [rbp - 80]
	mov	rsi, rbx
	lea	rdx, [rbp - 64]
	call	rax
	cmp	word ptr [rbp - 72], 0
	jne	.LBB18_55
	mov	r12, qword ptr [rbp - 80]
	add	r14, r12
	cmp	r14, 4
	jb	.LBB18_46
.LBB18_55:
	test	r13, r13
	je	.LBB18_62
	xor	r15d, r15d
	lea	r12, [rbp - 64]
	.p2align	4
.LBB18_57:
	mov	rax, qword ptr [rbp - 88]
	lea	rsi, [rax + r15]
	mov	r14, r13
	sub	r14, r15
	mov	rdi, qword ptr [rbx + 24]
	lea	rax, [rdi + r14]
	cmp	rax, qword ptr [rbx + 16]
	ja	.LBB18_59
	add	rdi, qword ptr [rbx + 8]
	mov	rdx, r14
	call	memcpy@PLT
	add	qword ptr [rbx + 24], r14
	add	r15, r14
	cmp	r15, r13
	jb	.LBB18_57
	jmp	.LBB18_62
.LBB18_59:
	mov	rax, qword ptr [rbx]
	mov	rax, qword ptr [rax]
	mov	qword ptr [rbp - 64], rsi
	mov	qword ptr [rbp - 56], r14
	mov	ecx, 1
	mov	r8d, 1
	lea	rdi, [rbp - 80]
	mov	rsi, rbx
	mov	rdx, r12
	call	rax
	cmp	word ptr [rbp - 72], 0
	jne	.LBB18_48
	mov	r14, qword ptr [rbp - 80]
	add	r15, r14
	cmp	r15, r13
	jb	.LBB18_57
.LBB18_62:
	lea	r12, [rip + __anon_8151]
	lea	r14, [rbp - 80]
	lea	r15, [rbp - 64]
.LBB18_63:
	mov	rax, qword ptr [rbx + 24]
	cmp	rax, qword ptr [rbx + 16]
	jb	.LBB18_64
	mov	rax, qword ptr [rbx]
	mov	rax, qword ptr [rax]
	mov	qword ptr [rbp - 64], r12
	mov	qword ptr [rbp - 56], 1
	mov	ecx, 1
	mov	r8d, 1
	mov	rdi, r14
	mov	rsi, rbx
	mov	rdx, r15
	call	rax
	cmp	word ptr [rbp - 72], 0
	jne	.LBB18_48
	cmp	qword ptr [rbp - 80], 0
	je	.LBB18_63
	jmp	.LBB18_48
.LBB18_64:
	mov	rcx, qword ptr [rbx + 8]
	mov	byte ptr [rcx + rax], 10
	inc	qword ptr [rbx + 24]
.LBB18_48:
	mov	rax, qword ptr [rip + Progress.stderr_file_writer+8]
	lea	rdi, [rip + Progress.stderr_file_writer+8]
	call	qword ptr [rax + 16]
	movabs	rax, -6148914691236517206
	mov	qword ptr [rip + Progress.stderr_file_writer+16], rax
	vxorps	xmm0, xmm0, xmm0
	vmovups	xmmword ptr [rip + Progress.stderr_file_writer+24], xmm0
	dec	qword ptr [rip + Progress.stderr_mutex]
	jne	.LBB18_51
	mov	dword ptr [rip + Progress.stderr_mutex+12], -1
	xor	eax, eax
	xchg	dword ptr [rip + Progress.stderr_mutex+8], eax
	cmp	eax, 3
	je	.LBB18_50
.LBB18_51:
	add	rsp, 136
	pop	rbx
	pop	r12
	pop	r13
	pop	r14
	pop	r15
	pop	rbp
	.cfi_def_cfa rsp, 8
	ret
.LBB18_50:
	.cfi_def_cfa rbp, 16
	lea	rdi, [rip + Progress.stderr_mutex+8]
	mov	esi, 1
	call	Thread.Futex.wake
	jmp	.LBB18_51
.Lfunc_end18:
	.size	"log.scoped(.default).err__anon_6072", .Lfunc_end18-"log.scoped(.default).err__anon_6072"
	.cfi_endproc

	.section	.rodata.cst32,"aM",@progbits,32
	.p2align	5, 0x0
.LCPI19_0:
	.zero	32,31
.LCPI19_1:
	.byte	0
	.byte	1
	.byte	2
	.byte	3
	.byte	4
	.byte	5
	.byte	6
	.byte	7
	.byte	8
	.byte	9
	.byte	10
	.byte	11
	.byte	12
	.byte	13
	.byte	14
	.byte	15
	.byte	16
	.byte	17
	.byte	18
	.byte	19
	.byte	20
	.byte	21
	.byte	22
	.byte	23
	.byte	24
	.byte	25
	.byte	26
	.byte	27
	.byte	28
	.byte	29
	.byte	30
	.byte	31
	.section	.rodata.cst4,"aM",@progbits,4
